(dp1
S'avg_precision'
p2
(lp3
I1
aI1
aI123
aI123
aI1
aI1
aI123
aI123
aI1
aI123
aI123
aI123
aI123
aI123
aI1
aI1
aI123
aI123
aI1
aI1
aI1
aI1
aI123
aI123
aI1
aI1
aI1
aI1
aI1
aI123
aI123
aI123
aI123
aI123
aI123
aI123
aI1
aI123
aI123
aI123
aI123
aI123
aI1
aI1
aI123
aI1
aI1
aI1
aI1
aI123
aI123
aI123
aI1
aI1
aI123
aI1
aI1
aI1
aI1
aI1
aI123
aI123
aI123
aI123
aI123
aI123
aI123
aI123
aI1
aI1
aI1
aI1
aI1
aI1
aI1
aI1
aI1
aI123
aI1
aI123
aI1
aI1
aI123
aI123
aI123
aI123
aI1
aI1
aI123
aI123
aI1
aI1
aI1
aI123
aI1
aI1
aI1
aI123
aI123
aI123
aI123
aI123
aI123
aI123
aI1
aI1
aI1
aI123
aI123
aI123
aI123
aI1
aI1
aI123
aI123
aI1
aI1
aI1
aI1
aI1
aI1
aI1
aI123
aI123
aI1
aI1
aI1
aI1
aI1
aI123
aI1
aI1
aI1
aI1
aI1
aI1
aI123
aI123
aI123
aI123
aI123
aI123
aI123
aI123
aI123
aI123
aI1
aI1
aI123
aI123
aI123
aI123
aI1
aI123
aI123
aI123
aI123
aI123
aI123
aI123
aI123
aI123
aI123
aI123
aI123
aI123
aI123
aI123
aI123
aI123
aI123
aI123
aI123
aI123
aI123
aI123
aI123
aI123
aI123
aI123
aI123
aI123
aI123
aI123
aI123
aI123
aI123
aI123
aI123
aI123
aI1
aI1
aI123
aI123
aI123
aI123
aI123
aI1
aI123
aI123
aI123
aI123
aI123
aI123
aI123
aI123
aI123
aI123
aI123
aI1
aI123
aI1
aI123
aI123
aI123
aI123
aI123
aI123
aI123
aI123
aI123
aI123
aI123
aI123
aI123
aI123
aI123
aI123
aI123
aI123
aI123
aI123
aI123
aI123
aI123
aI123
aI123
aI123
aI123
aI123
aI123
aI123
aI123
aI123
aI123
aI123
aI123
aI123
aI123
aI123
aI123
aI123
aI123
aI123
aI123
aI123
aI123
aI123
aI123
aI123
aI123
aI123
aI123
aI123
aI123
aI123
aI123
aI123
aI123
aI123
aI123
aI123
aI123
aI123
aI123
aI123
aI123
aI123
aI123
aI123
aI123
aI123
aI123
aI123
aI123
aI123
aI123
aI123
aI123
aI123
aI123
aI123
aI123
aI123
aI123
aI123
aI123
aI1
aI1
aI123
aI1
aI1
aI1
aI1
aI1
aI1
aI123
aI123
aI123
aI123
aI123
aI123
aI123
aI123
aI123
aI123
aI123
aI123
aI123
aI1
aI123
aI123
aI123
aI123
aI123
aI123
aI123
aI123
aI123
aI123
aI123
aI123
aI1
aI123
aI1
aI123
aI123
aI123
aI123
aI123
aI123
aI1
aI123
aI123
aI123
aI1
aI123
aI123
aI123
aI1
aI123
aI123
asS'rewards'
p4
(lp5
cnumpy.core.multiarray
scalar
p6
(cnumpy
dtype
p7
(S'f8'
I0
I1
tRp8
(I3
S'<'
NNNI-1
I-1
I0
tbS'\x00\x00\x00\x00\x00\x00\x00\x00'
tRp9
ag6
(g8
S'\x00\x00\x00\x00\x00\x00\x00\x00'
tRp10
ag6
(g8
S'\x00\x00\x00\x00\x00\x00\x00\x00'
tRp11
ag6
(g8
S'\x00\x00\x00\x00\x00\x00\x00\x00'
tRp12
ag6
(g8
S'\x00\x00\x00\x00\x00\x00\x00\x00'
tRp13
ag6
(g8
S'\x00\x00\x00\x00\x00\x00\x00\x00'
tRp14
ag6
(g8
S'\x00\x00\x00\x00\x00\x00\x00\x00'
tRp15
ag6
(g8
S'\x00\x00\x00\x00\x00\x00\x00\x00'
tRp16
ag6
(g8
S'\x00\x00\x00\x00\x00\x00\x00\x00'
tRp17
ag6
(g8
S'\x00\x00\x00\x00\x00\x00\x00\x00'
tRp18
ag6
(g8
S'\x94\xba/\x8f\xad\x08\xaa?'
tRp19
ag6
(g8
S'\x11\x11\x11\x11\x11\x11\xa1?'
tRp20
ag6
(g8
S'\x00\x00\x00\x00\x00\x00\x00\x00'
tRp21
ag6
(g8
S'\x00\x00\x00\x00\x00\x00\x00\x00'
tRp22
ag6
(g8
S'\x00\x00\x00\x00\x00\x00\x00\x00'
tRp23
ag6
(g8
S'\x00\x00\x00\x00\x00\x00\x00\x00'
tRp24
ag6
(g8
S'\x08\x1f|\xf0\xc1\x07\x9f?'
tRp25
ag6
(g8
S'\x08\x1f|\xf0\xc1\x07\x9f?'
tRp26
ag6
(g8
S'\x00\x00\x00\x00\x00\x00\x00\x00'
tRp27
ag6
(g8
S'\x00\x00\x00\x00\x00\x00\x00\x00'
tRp28
ag6
(g8
S'\x00\x00\x00\x00\x00\x00\x00\x00'
tRp29
ag6
(g8
S'\x00\x00\x00\x00\x00\x00\x00\x00'
tRp30
ag6
(g8
S'\x00\x00\x00\x00\x00\x00\x00\x00'
tRp31
ag6
(g8
S'\x00\x00\x00\x00\x00\x00\x00\x00'
tRp32
ag6
(g8
S'\x00\x00\x00\x00\x00\x00\x00\x00'
tRp33
ag6
(g8
S'\x00\x00\x00\x00\x00\x00\x00\x00'
tRp34
ag6
(g8
S'\x00\x00\x00\x00\x00\x00\x00\x00'
tRp35
ag6
(g8
S'\x00\x00\x00\x00\x00\x00\x00\x00'
tRp36
ag6
(g8
S'\x00\x00\x00\x00\x00\x00\x00\x00'
tRp37
ag6
(g8
S'\x9a\x99\x99\x99\x99\x99\x99?'
tRp38
ag6
(g8
S'\x00\x00\x00\x00\x00\x00\x00\x00'
tRp39
ag6
(g8
S'\x00\x00\x00\x00\x00\x00\x00\x00'
tRp40
ag6
(g8
S'4\xf9\xb2A\x93/\x9b?'
tRp41
ag6
(g8
S'\x89\x88\x88\x88\x88\x88\xd8?'
tRp42
ag6
(g8
S'\xce9\xe7\x9cs\xce\xd9?'
tRp43
ag6
(g8
S'\x13\xdaKh/\xa1\xdd?'
tRp44
ag6
(g8
S'\x00\x00\x00\x00\x00\x00\x00\x00'
tRp45
ag6
(g8
S'\x95RJ)\xa5\x94\xb2?'
tRp46
ag6
(g8
S'\x00\x00\x00\x00\x00\x00\x00\x00'
tRp47
ag6
(g8
S'%I\x92$I\x92\xc4?'
tRp48
ag6
(g8
S'\x87\x1f\xd5%f-\x84?'
tRp49
ag6
(g8
S'\x96{\x1aa\xb9\xa7\xa1?'
tRp50
ag6
(g8
S'\x00\x00\x00\x00\x00\x00\x00\x00'
tRp51
ag6
(g8
S'\x00\x00\x00\x00\x00\x00\x00\x00'
tRp52
ag6
(g8
S'\xd0\xba\xc1\x14\xf9\xac\xab?'
tRp53
ag6
(g8
S'\x00\x00\x00\x00\x00\x00\x00\x00'
tRp54
ag6
(g8
S'\x00\x00\x00\x00\x00\x00\x00\x00'
tRp55
ag6
(g8
S'\x00\x00\x00\x00\x00\x00\x00\x00'
tRp56
ag6
(g8
S'\x00\x00\x00\x00\x00\x00\x00\x00'
tRp57
ag6
(g8
S'\x00\x00\x00\x00\x00\x00\x00\x00'
tRp58
ag6
(g8
S'\xc9g\xdd`\x8a|\xd6?'
tRp59
ag6
(g8
S'd!\x0bY\xc8B\xd6?'
tRp60
ag6
(g8
S'\x00\x00\x00\x00\x00\x00\x00\x00'
tRp61
ag6
(g8
S'\x00\x00\x00\x00\x00\x00\x00\x00'
tRp62
ag6
(g8
S'\x9a\x99\x99\x99\x99\x99\x89?'
tRp63
ag6
(g8
S'\x00\x00\x00\x00\x00\x00\x00\x00'
tRp64
ag6
(g8
S'\x00\x00\x00\x00\x00\x00\x00\x00'
tRp65
ag6
(g8
S'\x00\x00\x00\x00\x00\x00\x00\x00'
tRp66
ag6
(g8
S'\x00\x00\x00\x00\x00\x00\x00\x00'
tRp67
ag6
(g8
S'\x00\x00\x00\x00\x00\x00\x00\x00'
tRp68
ag6
(g8
S'\xd0\xba\xc1\x14\xf9\xac\x8b?'
tRp69
ag6
(g8
S'\x0b\x9b\x03\x89V\xd8\x8c?'
tRp70
ag6
(g8
S'(\xaf\xa1\xbc\x86\xf2\x8a?'
tRp71
ag6
(g8
S'\x0b\x9b\x03\x89V\xd8\x8c?'
tRp72
ag6
(g8
S'\x00\x00\x00\x00\x00\x00\xb0?'
tRp73
ag6
(g8
S'W\x10\x93+\x88\xc9\x95?'
tRp74
ag6
(g8
S'\xd0\xba\xc1\x14\xf9\xac\x8b?'
tRp75
ag6
(g8
S'\x00\x00\x00\x00\x00\x00\x00\x00'
tRp76
ag6
(g8
S'\x00\x00\x00\x00\x00\x00\x00\x00'
tRp77
ag6
(g8
S'\x00\x00\x00\x00\x00\x00\x00\x00'
tRp78
ag6
(g8
S'\x00\x00\x00\x00\x00\x00\x00\x00'
tRp79
ag6
(g8
S'\x00\x00\x00\x00\x00\x00\x00\x00'
tRp80
ag6
(g8
S'\x00\x00\x00\x00\x00\x00\x00\x00'
tRp81
ag6
(g8
S'\x00\x00\x00\x00\x00\x00\x00\x00'
tRp82
ag6
(g8
S'\x00\x00\x00\x00\x00\x00\x00\x00'
tRp83
ag6
(g8
S'\x00\x00\x00\x00\x00\x00\x00\x00'
tRp84
ag6
(g8
S'\x00\x00\x00\x00\x00\x00\x00\x00'
tRp85
ag6
(g8
S'\x1d\xd4A\x1d\xd4A\x9d?'
tRp86
ag6
(g8
S'\x00\x00\x00\x00\x00\x00\x00\x00'
tRp87
ag6
(g8
S'\x00\x00\x00\x00\x00\x00\x00\x00'
tRp88
ag6
(g8
S'\x00\x00\x00\x00\x00\x00\x00\x00'
tRp89
ag6
(g8
S'\x00\x00\x00\x00\x00\x00\x00\x00'
tRp90
ag6
(g8
S'|\x1aa\xb9\xa7\x11\xd6?'
tRp91
ag6
(g8
S'\xeb\x06S\xe4\xb3n\xe0?'
tRp92
ag6
(g8
S'S\xe4\xb3n0E\xde?'
tRp93
ag6
(g8
S'\x00\x00\x00\x00\x00\x00\xe0?'
tRp94
ag6
(g8
S'\x00\x00\x00\x00\x00\x00\x00\x00'
tRp95
ag6
(g8
S'\x00\x00\x00\x00\x00\x00\x00\x00'
tRp96
ag6
(g8
S'(\xaf\xa1\xbc\x86\xf2\x8a?'
tRp97
ag6
(g8
S'(\xaf\xa1\xbc\x86\xf2\x9a?'
tRp98
ag6
(g8
S'\x00\x00\x00\x00\x00\x00\x00\x00'
tRp99
ag6
(g8
S'\x00\x00\x00\x00\x00\x00\x00\x00'
tRp100
ag6
(g8
S'\x00\x00\x00\x00\x00\x00\x00\x00'
tRp101
ag6
(g8
S'\xd0\xba\xc1\x14\xf9\xac\x8b?'
tRp102
ag6
(g8
S'\x00\x00\x00\x00\x00\x00\x00\x00'
tRp103
ag6
(g8
S'\x00\x00\x00\x00\x00\x00\x00\x00'
tRp104
ag6
(g8
S'\x00\x00\x00\x00\x00\x00\x00\x00'
tRp105
ag6
(g8
S'\x11\x11\x11\x11\x11\x11\xe1?'
tRp106
ag6
(g8
S'l(\xaf\xa1\xbc\x86\xe2?'
tRp107
ag6
(g8
S'g1\x9d\xc5t\x16\xd3?'
tRp108
ag6
(g8
S'\xbd\x86\xf2\x1a\xcak\xe0?'
tRp109
ag6
(g8
S'y\r\xe55\x94\xd7\xe0?'
tRp110
ag6
(g8
S'\xf3\x1a\xcak(\xaf\xe1?'
tRp111
ag6
(g8
S'\x00\x00\x00\x00\x00\x00\x00\x00'
tRp112
ag6
(g8
S'\x00\x00\x00\x00\x00\x00\x00\x00'
tRp113
ag6
(g8
S'\x00\x00\x00\x00\x00\x00\x00\x00'
tRp114
ag6
(g8
S'\x00\x00\x00\x00\x00\x00\x00\x00'
tRp115
ag6
(g8
S'O\x1b\xe8\xb4\x81N\x8b?'
tRp116
ag6
(g8
S'\x00\x00\x00\x00\x00\x00\x00\x00'
tRp117
ag6
(g8
S'\x00\x00\x00\x00\x00\x00\x00\x00'
tRp118
ag6
(g8
S'\x00\x00\x00\x00\x00\x00\x00\x00'
tRp119
ag6
(g8
S'\x00\x00\x00\x00\x00\x00\x00\x00'
tRp120
ag6
(g8
S'\x00\x00\x00\x00\x00\x00\x00\x00'
tRp121
ag6
(g8
S'\x1a\xa4A\x1a\xa4A\x8a?'
tRp122
ag6
(g8
S'\x00\x00\x00\x00\x00\x00\x00\x00'
tRp123
ag6
(g8
S'\x00\x00\x00\x00\x00\x00\x00\x00'
tRp124
ag6
(g8
S'\x00\x00\x00\x00\x00\x00\x00\x00'
tRp125
ag6
(g8
S'\x00\x00\x00\x00\x00\x00\x00\x00'
tRp126
ag6
(g8
S'\x00\x00\x00\x00\x00\x00\x00\x00'
tRp127
ag6
(g8
S'\x00\x00\x00\x00\x00\x00\x00\x00'
tRp128
ag6
(g8
S'\x00\x00\x00\x00\x00\x00\x00\x00'
tRp129
ag6
(g8
S'\x00\x00\x00\x00\x00\x00\x00\x00'
tRp130
ag6
(g8
S'(\xaf\xa1\xbc\x86\xf2\xe2?'
tRp131
ag6
(g8
S'\xa2\xbc\x86\xf2\x1a\xca\xe3?'
tRp132
ag6
(g8
S'\x00\x00\x00\x00\x00\x00\x00\x00'
tRp133
ag6
(g8
S'\x00\x00\x00\x00\x00\x00\x00\x00'
tRp134
ag6
(g8
S'\x00\x00\x00\x00\x00\x00\x00\x00'
tRp135
ag6
(g8
S'\x00\x00\x00\x00\x00\x00\x00\x00'
tRp136
ag6
(g8
S'\x00\x00\x00\x00\x00\x00\x00\x00'
tRp137
ag6
(g8
S'/\xa1\xbd\x84\xf6\x12\xda?'
tRp138
ag6
(g8
S'\x00\x00\x00\x00\x00\x00\x00\x00'
tRp139
ag6
(g8
S'\x00\x00\x00\x00\x00\x00\x00\x00'
tRp140
ag6
(g8
S'\x00\x00\x00\x00\x00\x00\x00\x00'
tRp141
ag6
(g8
S'\x00\x00\x00\x00\x00\x00\x00\x00'
tRp142
ag6
(g8
S'\x00\x00\x00\x00\x00\x00\x00\x00'
tRp143
ag6
(g8
S'\x00\x00\x00\x00\x00\x00\x00\x00'
tRp144
ag6
(g8
S'O\x1b\xe8\xb4\x81N\x8b?'
tRp145
ag6
(g8
S'(\xaf\xa1\xbc\x86\xf2\x8a?'
tRp146
ag6
(g8
S'\x1c\xc7q\x1c\xc7q\x8c?'
tRp147
ag6
(g8
S'\x1a\xa4A\x1a\xa4A\x8a?'
tRp148
ag6
(g8
S'\xbecj`\xef\x98\x9a?'
tRp149
ag6
(g8
S'\xd0\xba\xc1\x14\xf9\xac\x8b?'
tRp150
ag6
(g8
S'\xd93\x10\x95\x8e\xec\x89?'
tRp151
ag6
(g8
S'\x00\x00\x00\x00\x00\x00\x00\x00'
tRp152
ag6
(g8
S'\x00\x00\x00\x00\x00\x00\x00\x00'
tRp153
ag6
(g8
S'\x00\x00\x00\x00\x00\x00\x00\x00'
tRp154
ag6
(g8
S'\x00\x00\x00\x00\x00\x00\x00\x00'
tRp155
ag6
(g8
S'\x00\x00\x00\x00\x00\x00\x00\x00'
tRp156
ag6
(g8
S'\x8c.\xba\xe8\xa2\x8b\xde?'
tRp157
ag6
(g8
S'^Cy\r\xe55\xd4?'
tRp158
ag6
(g8
S'6\x94\xd7P^C\xd9?'
tRp159
ag6
(g8
S'\x9a\x99\x99\x99\x99\x99\xd9?'
tRp160
ag6
(g8
S'\x00\x00\x00\x00\x00\x00\x00\x00'
tRp161
ag6
(g8
S'\x00\x00\x00\x00\x00\x00\x00\x00'
tRp162
ag6
(g8
S'\x00\x00\x00\x00\x00\x00\x00\x00'
tRp163
ag6
(g8
S'\x84\x10B\x08!\x84\xc0?'
tRp164
ag6
(g8
S'\x00\x00\x00\x00\x00\x00\x00\x00'
tRp165
ag6
(g8
S'\x00\x00\x00\x00\x00\x00\x00\x00'
tRp166
ag6
(g8
S'\x00\x00\x00\x00\x00\x00\x00\x00'
tRp167
ag6
(g8
S'\x00\x00\x00\x00\x00\x00\x00\x00'
tRp168
ag6
(g8
S'\x00\x00\x00\x00\x00\x00\x00\x00'
tRp169
ag6
(g8
S'\xbecj`\xef\x98\xaa?'
tRp170
ag6
(g8
S'g1\x9d\xc5t\x16\xd3?'
tRp171
ag6
(g8
S'\n\xd7\xa3p=\n\xd7?'
tRp172
ag6
(g8
S'\x9a\x99\x99\x99\x99\x99\xd9?'
tRp173
ag6
(g8
S'\xbd\x86\xf2\x1a\xcak\xd8?'
tRp174
ag6
(g8
S'Q\xbb\x12\xb5+Q\xdb?'
tRp175
ag6
(g8
S'\xce\xcaO\x88\xb3\xf2\xd3?'
tRp176
ag6
(g8
S'o0E>\xeb\x06\xd3?'
tRp177
ag6
(g8
S'\xdb\x81\xb9v`\xae\xcd?'
tRp178
ag6
(g8
S'\x92$I\x92$I\xb2?'
tRp179
ag6
(g8
S'\x00\x00\x00\x00\x00\x00\xc0?'
tRp180
ag6
(g8
S'\x1a\xa4A\x1a\xa4A\x8a?'
tRp181
ag6
(g8
S'\x00\x00\x00\x00\x00\x00\x00\x00'
tRp182
ag6
(g8
S'\x00\x00\x00\x00\x00\x00\x00\x00'
tRp183
ag6
(g8
S'\x00\x00\x00\x00\x00\x00\x00\x00'
tRp184
ag6
(g8
S'\xfa\x18\x9c\x8f\xc1\xf9\x98?'
tRp185
ag6
(g8
S'\x00\x00\x00\x00\x00\x00\xc0?'
tRp186
ag6
(g8
S'\x92$I\x92$I\xb2?'
tRp187
ag6
(g8
S'\x00\x00\x00\x00\x00\x00\x00\x00'
tRp188
ag6
(g8
S'\x00\x00\x00\x00\x00\x00\x00\x00'
tRp189
ag6
(g8
S'\x00\x00\x00\x00\x00\x00\x00\x00'
tRp190
ag6
(g8
S'\x00\x00\x00\x00\x00\x00\x00\x00'
tRp191
ag6
(g8
S'\xd93\x10\x95\x8e\xec\x99?'
tRp192
ag6
(g8
S'\x11\x11\x11\x11\x11\x11\xa1?'
tRp193
ag6
(g8
S'\x1a\xa4A\x1a\xa4A\x8a?'
tRp194
ag6
(g8
S'\x00\x00\x00\x00\x00\x00\x00\x00'
tRp195
ag6
(g8
S'\x00\x00\x00\x00\x00\x00\x00\x00'
tRp196
ag6
(g8
S'\x00\x00\x00\x00\x00\x00\x00\x00'
tRp197
ag6
(g8
S'\x00\x00\x00\x00\x00\x00\x00\x00'
tRp198
ag6
(g8
S'\x00\x00\x00\x00\x00\x00\x00\x00'
tRp199
ag6
(g8
S'\x00\x00\x00\x00\x00\x00\x00\x00'
tRp200
ag6
(g8
S'\x00\x00\x00\x00\x00\x00\x00\x00'
tRp201
ag6
(g8
S'\x00\x00\x00\x00\x00\x00\x00\x00'
tRp202
ag6
(g8
S'\x00\x00\x00\x00\x00\x00\x00\x00'
tRp203
ag6
(g8
S'\x00\x00\x00\x00\x00\x00\x00\x00'
tRp204
ag6
(g8
S'\x00\x00\x00\x00\x00\x00\x00\x00'
tRp205
ag6
(g8
S'\x00\x00\x00\x00\x00\x00\x00\x00'
tRp206
ag6
(g8
S'\x08\x1f|\xf0\xc1\x07\xaf?'
tRp207
ag6
(g8
S'\xb1\x13;\xb1\x13;\xe1?'
tRp208
ag6
(g8
S'\x97o\xf9\x96o\xf9\xb6?'
tRp209
ag6
(g8
S'\x00\x00\x00\x00\x00\x00\x00\x00'
tRp210
ag6
(g8
S'\x00\x00\x00\x00\x00\x00\x00\x00'
tRp211
ag6
(g8
S'\x00\x00\x00\x00\x00\x00\x00\x00'
tRp212
ag6
(g8
S'\x00\x00\x00\x00\x00\x00\x00\x00'
tRp213
ag6
(g8
S'\x08\x1f|\xf0\xc1\x07\x9f?'
tRp214
ag6
(g8
S'\x00\x00\x00\x00\x00\x00\x00\x00'
tRp215
ag6
(g8
S'\x00\x00\x00\x00\x00\x00\x00\x00'
tRp216
ag6
(g8
S'\x00\x00\x00\x00\x00\x00\x00\x00'
tRp217
ag6
(g8
S'\x00\x00\x00\x00\x00\x00\x00\x00'
tRp218
ag6
(g8
S'\x00\x00\x00\x00\x00\x00\x00\x00'
tRp219
ag6
(g8
S'\x00\x00\x00\x00\x00\x00\x00\x00'
tRp220
ag6
(g8
S'\x00\x00\x00\x00\x00\x00\xa0?'
tRp221
ag6
(g8
S'\x00\x00\x00\x00\x00\x00\x00\x00'
tRp222
ag6
(g8
S'\x00\x00\x00\x00\x00\x00\x00\x00'
tRp223
ag6
(g8
S'\x1a\xa4A\x1a\xa4A\x9a?'
tRp224
ag6
(g8
S'\x14;\xb1\x13;\xb1\xc3?'
tRp225
ag6
(g8
S'\xc7\xd4\xc0\xde15\xe0?'
tRp226
ag6
(g8
S'\x00\x00\x00\x00\x00\x00\xe2?'
tRp227
ag6
(g8
S'r\x1c\xc7q\x1c\xc7\xd1?'
tRp228
ag6
(g8
S'ZZZZZZ\xda?'
tRp229
ag6
(g8
S'k\xca\x9a\xb2\xa6\xac\xe9?'
tRp230
ag6
(g8
S'R\x9aN\x11\xf88\xdb?'
tRp231
ag6
(g8
S"\xc8V\x04\r'u\xdf?"
tRp232
ag6
(g8
S'\x14\x14\x14\x14\x14\x14\xc4?'
tRp233
ag6
(g8
S'\\\xbe\xe5[\xbe\xe5\xcb?'
tRp234
ag6
(g8
S'\xd0pR\xf7\xe5\xb1\xb5?'
tRp235
ag6
(g8
S'(\xaf\xa1\xbc\x86\xf2\xca?'
tRp236
ag6
(g8
S'\xbe\xe5[\xbe\xe5[\xde?'
tRp237
ag6
(g8
S'UUUUUU\xc5?'
tRp238
ag6
(g8
S'\xf7A2\xa0\x9e\xa9\xdc?'
tRp239
ag6
(g8
S'\xafRL\xd0]\xa5\xd8?'
tRp240
ag6
(g8
S'\x00\x00\x00\x00\x00\x00\x00\x00'
tRp241
ag6
(g8
S'kq\x13\xe6w\xb5\xd8?'
tRp242
ag6
(g8
S'\x0b\x9b\x03\x89V\xd8\x8c?'
tRp243
ag6
(g8
S'\x11\x11\x11\x11\x11\x11\xb1?'
tRp244
ag6
(g8
S'o4u~\xed!\xd7?'
tRp245
ag6
(g8
S'R\x05\xf8\x0b\xee\x9a\xd7?'
tRp246
ag6
(g8
S'\xef\x97\xf5~Y\xef\xd7?'
tRp247
ag6
(g8
S'\xdb\x81\xb9v`\xae\xcd?'
tRp248
ag6
(g8
S'\x1a\xa4A\x1a\xa4A\x9a?'
tRp249
ag6
(g8
S'\x1a\xa4A\x1a\xa4A\x8a?'
tRp250
ag6
(g8
S'd!\x0bY\xc8B\xa6?'
tRp251
ag6
(g8
S'"5\xc1x+\xfb\xac?'
tRp252
ag6
(g8
S'\xbecj`\xef\x98\xaa?'
tRp253
ag6
(g8
S'(\xaf\xa1\xbc\x86\xf2\xaa?'
tRp254
ag6
(g8
S'\x17l\xc1\x16l\xc1\x96?'
tRp255
ag6
(g8
S'\xd93\x10\x95\x8e\xec\x89?'
tRp256
ag6
(g8
S'^Cy\r\xe55\xa4?'
tRp257
ag6
(g8
S'\xd93\x10\x95\x8e\xec\x89?'
tRp258
ag6
(g8
S'\xc8w\xe1 z|\xa7?'
tRp259
ag6
(g8
S'\xce\xcaO\x88\xb3\xf2\xa3?'
tRp260
ag6
(g8
S'\xd93\x10\x95\x8e\xec\xb9?'
tRp261
ag6
(g8
S'\x14;\xb1\x13;\xb1\xa3?'
tRp262
ag6
(g8
S'\x14;\xb1\x13;\xb1\xa3?'
tRp263
ag6
(g8
S'\xce\xcaO\x88\xb3\xf2\xa3?'
tRp264
ag6
(g8
S'\x14;\xb1\x13;\xb1\xa3?'
tRp265
ag6
(g8
S'\x97\x96\x96\x96\x96\x96\xc6?'
tRp266
ag6
(g8
S'\x1a\xa4A\x1a\xa4A\x9a?'
tRp267
ag6
(g8
S'\x1a\xa4A\x1a\xa4A\x9a?'
tRp268
ag6
(g8
S'\x1a\xa4A\x1a\xa4A\x9a?'
tRp269
ag6
(g8
S'\xba5?,R\x06\xce?'
tRp270
ag6
(g8
S'\xfc\xc0\x0f\xfc\xc0\x0f\xdc?'
tRp271
ag6
(g8
S'\x11\x11\x11\x11\x11\x11\xb1?'
tRp272
ag6
(g8
S'\xd6\x87\xc6\xfa\xd0X\xbf?'
tRp273
ag6
(g8
S'\x00\x00\x00\x00\x00\x00\x00\x00'
tRp274
ag6
(g8
S'\x9a\x99\x99\x99\x99\x99\x99?'
tRp275
ag6
(g8
S'\xc8\xa4x\x81L\x8a\x97?'
tRp276
ag6
(g8
S'\xd93\x10\x95\x8e\xec\x99?'
tRp277
ag6
(g8
S'\xe0\xc0\x81\x03\x07\x0e\x8c?'
tRp278
ag6
(g8
S'\x18\x86a\x18\x86a\x98?'
tRp279
ag6
(g8
S'\x97\x96\x96\x96\x96\x96\xc6?'
tRp280
ag6
(g8
S'\xd93\x10\x95\x8e\xec\x99?'
tRp281
ag6
(g8
S'\xd93\x10\x95\x8e\xec\x99?'
tRp282
ag6
(g8
S'\xd93\x10\x95\x8e\xec\x99?'
tRp283
ag6
(g8
S'\x1a\xa4A\x1a\xa4A\x9a?'
tRp284
ag6
(g8
S'O\x1b\xe8\xb4\x81N\x9b?'
tRp285
ag6
(g8
S'\xaa\xf3k\x0f\xb9\xac\x98?'
tRp286
ag6
(g8
S'\x1e\x1e\x1e\x1e\x1e\x1e\xbe?'
tRp287
ag6
(g8
S'\x1a\xa4A\x1a\xa4A\x9a?'
tRp288
ag6
(g8
S'\xbf\xf6\x90\xcb\x8a\x81\xa2?'
tRp289
ag6
(g8
S'\xaa\xf3k\x0f\xb9\xac\x98?'
tRp290
ag6
(g8
S'\xd93\x10\x95\x8e\xec\x99?'
tRp291
ag6
(g8
S'\x0b\x9b\x03\x89V\xd8\x9c?'
tRp292
ag6
(g8
S'\x17h\x81\x16h\x81\x96?'
tRp293
ag6
(g8
S'\xc8w\xe1 z|\xa7?'
tRp294
ag6
(g8
S'\xf4\x05}A_\xd0\x97?'
tRp295
ag6
(g8
S'\xd93\x10\x95\x8e\xec\x99?'
tRp296
ag6
(g8
S'p\x81\x0b\\\xe0\x02\x97?'
tRp297
ag6
(g8
S'\x9a\x99\x99\x99\x99\x99\x99?'
tRp298
ag6
(g8
S'\x1c\xc7q\x1c\xc7q\x8c?'
tRp299
ag6
(g8
S'\x18\x18\x18\x18\x18\x18\x98?'
tRp300
ag6
(g8
S'\x9e\xd8\x89\x9d\xd8\x89\xcd?'
tRp301
ag6
(g8
S'\x9a\x99\x99\x99\x99\x99\x89?'
tRp302
ag6
(g8
S'\x9a\x99\x99\x99\x99\x99\x89?'
tRp303
ag6
(g8
S'\xe0\xe9\xd6\xfc\xb0H\x89?'
tRp304
ag6
(g8
S'\x00\x00\x00\x00\x00\x00\x00\x00'
tRp305
ag6
(g8
S'\x00\x00\x00\x00\x00\x00\x00\x00'
tRp306
ag6
(g8
S'\x00\x00\x00\x00\x00\x00\x00\x00'
tRp307
ag6
(g8
S'(\xaf\xa1\xbc\x86\xf2\xaa?'
tRp308
ag6
(g8
S'\x00\x00\x00\x00\x00\x00\x00\x00'
tRp309
ag6
(g8
S'\x00\x00\x00\x00\x00\x00\x00\x00'
tRp310
ag6
(g8
S'\x00\x00\x00\x00\x00\x00\x00\x00'
tRp311
ag6
(g8
S'\x00\x00\x00\x00\x00\x00\x00\x00'
tRp312
ag6
(g8
S'\x00\x00\x00\x00\x00\x00\x00\x00'
tRp313
ag6
(g8
S'\x00\x00\x00\x00\x00\x00\x00\x00'
tRp314
ag6
(g8
S'\xedX\x810\xd2\x8e\x95?'
tRp315
ag6
(g8
S'\x17l\xc1\x16l\xc1\x86?'
tRp316
ag6
(g8
S'\x00\x00\x00\x00\x00\x00\x00\x00'
tRp317
ag6
(g8
S'F\x17]t\xd1E\xa7?'
tRp318
ag6
(g8
S'\x00\x00\x00\x00\x00\x00\x00\x00'
tRp319
ag6
(g8
S'\x00\x00\x00\x00\x00\x00\x00\x00'
tRp320
ag6
(g8
S'\x00\x00\x00\x00\x00\x00\x00\x00'
tRp321
ag6
(g8
S'\x00\x00\x00\x00\x00\x00\x00\x00'
tRp322
ag6
(g8
S'\x00\x00\x00\x00\x00\x00\x00\x00'
tRp323
ag6
(g8
S'\x00\x00\x00\x00\x00\x00\x00\x00'
tRp324
ag6
(g8
S'F\x17]t\xd1E\xa7?'
tRp325
ag6
(g8
S'\x1a\xa4A\x1a\xa4A\xaa?'
tRp326
ag6
(g8
S'\xe0\xe9\xd6\xfc\xb0H\x89?'
tRp327
ag6
(g8
S'\x00\x00\x00\x00\x00\x00\x00\x00'
tRp328
ag6
(g8
S'\x00\x00\x00\x00\x00\x00\x00\x00'
tRp329
ag6
(g8
S'\xfa\x18\x9c\x8f\xc1\xf9\x88?'
tRp330
ag6
(g8
S'\xfa\x18\x9c\x8f\xc1\xf9\x88?'
tRp331
ag6
(g8
S'K\xd4\xaeD\xedJ\xc4?'
tRp332
ag6
(g8
S'\xa4\x0c<\xdd\x9a\x1f\xc6?'
tRp333
ag6
(g8
S'K\xd4\xaeD\xedJ\xe4?'
tRp334
ag6
(g8
S'\x00\x00\x00\x00\x00\x00\x00\x00'
tRp335
ag6
(g8
S'\x00\x00\x00\x00\x00\x00\xd0?'
tRp336
ag6
(g8
S'\x00\x00\x00\x00\x00\x00\x00\x00'
tRp337
ag6
(g8
S'\x18\x86a\x18\x86a\x88?'
tRp338
ag6
(g8
S'\x00\x00\x00\x00\x00\x00\x00\x00'
tRp339
ag6
(g8
S'\x06\x16X`\x81\x05\x96?'
tRp340
ag6
(g8
S'\x00\x00\x00\x00\x00\x00\x00\x00'
tRp341
ag6
(g8
S'\x92$I\x92$I\xe2?'
tRp342
ag6
(g8
S'\x00\x00\x00\x00\x00\x00\x00\x00'
tRp343
ag6
(g8
S',Q\xbb\x12\xb5+\xd1?'
tRp344
ag6
(g8
S'qG\xdc\x11w\xc4\xad?'
tRp345
ag6
(g8
S'\xedX\x810\xd2\x8e\x85?'
tRp346
ag6
(g8
S'\x92$I\x92$I\xa2?'
tRp347
ag6
(g8
S'\x17l\xc1\x16l\xc1\x86?'
tRp348
ag6
(g8
S'\x00\x00\x00\x00\x00\x00\x00\x00'
tRp349
ag6
(g8
S'\x00\x00\x00\x00\x00\x00\x00\x00'
tRp350
ag6
(g8
S'\x00\x00\x00\x00\x00\x00\x00\x00'
tRp351
ag6
(g8
S'\x17l\xc1\x16l\xc1\x86?'
tRp352
ag6
(g8
S'\x00\x00\x00\x00\x00\x00\x00\x00'
tRp353
ag6
(g8
S'\x00\x00\x00\x00\x00\x00\x00\x00'
tRp354
ag6
(g8
S'\x00\x00\x00\x00\x00\x00\x00\x00'
tRp355
ag6
(g8
S'\x18\x18\x18\x18\x18\x18\x88?'
tRp356
ag6
(g8
S'\xfa\x18\x9c\x8f\xc1\xf9\x88?'
tRp357
ag6
(g8
S'\x00\x00\x00\x00\x00\x00\x00\x00'
tRp358
ag6
(g8
S'\x00\x00\x00\x00\x00\x00\x00\x00'
tRp359
ag6
(g8
S'\x00\x00\x00\x00\x00\x00\x00\x00'
tRp360
asS'missed'
p361
(lp362
L0L
aL0L
aL1L
aL1L
aL0L
aL0L
aL1L
aL1L
aL0L
aL4L
aL1L
aL6L
aL1L
aL1L
aL0L
aL0L
aL2L
aL0L
aL0L
aL0L
aL0L
aL0L
aL4L
aL1L
aL0L
aL0L
aL0L
aL0L
aL0L
aL0L
aL5L
aL11L
aL2L
aL28L
aL28L
aL24L
aL0L
aL1L
aL1L
aL35L
aL0L
aL0L
aL0L
aL0L
aL4L
aL0L
aL0L
aL0L
aL0L
aL1L
aL5L
aL6L
aL0L
aL0L
aL0L
aL0L
aL0L
aL0L
aL0L
aL0L
aL0L
aL0L
aL0L
aL0L
aL1L
aL0L
aL1L
aL1L
aL0L
aL0L
aL0L
aL0L
aL0L
aL0L
aL0L
aL0L
aL0L
aL0L
aL0L
aL1L
aL0L
aL0L
aL24L
aL36L
aL39L
aL37L
aL0L
aL0L
aL1L
aL6L
aL0L
aL0L
aL0L
aL0L
aL0L
aL0L
aL0L
aL32L
aL4L
aL17L
aL33L
aL32L
aL30L
aL4L
aL0L
aL0L
aL0L
aL0L
aL1L
aL1L
aL1L
aL0L
aL0L
aL1L
aL1L
aL0L
aL0L
aL0L
aL0L
aL0L
aL0L
aL0L
aL27L
aL25L
aL0L
aL0L
aL0L
aL0L
aL0L
aL24L
aL0L
aL0L
aL0L
aL0L
aL0L
aL0L
aL0L
aL1L
aL0L
aL0L
aL0L
aL0L
aL0L
aL2L
aL1L
aL2L
aL0L
aL0L
aL19L
aL9L
aL3L
aL3L
aL0L
aL1L
aL1L
aL3L
aL2L
aL1L
aL1L
aL1L
aL1L
aL2L
aL26L
aL21L
aL18L
aL19L
aL17L
aL27L
aL27L
aL29L
aL0L
aL5L
aL1L
aL1L
aL2L
aL3L
aL1L
aL0L
aL9L
aL1L
aL2L
aL1L
aL1L
aL1L
aL0L
aL1L
aL2L
aL1L
aL3L
aL1L
aL0L
aL0L
aL1L
aL2L
aL1L
aL1L
aL2L
aL0L
aL0L
aL15L
aL26L
aL2L
aL1L
aL2L
aL1L
aL0L
aL3L
aL1L
aL1L
aL0L
aL1L
aL0L
aL0L
aL1L
aL2L
aL13L
aL3L
aL33L
aL26L
aL33L
aL59L
aL11L
aL150L
aL52L
aL8L
aL28L
aL24L
aL18L
aL32L
aL9L
aL64L
aL68L
aL1L
aL31L
aL15L
aL8L
aL84L
aL145L
aL143L
aL41L
aL3L
aL1L
aL0L
aL0L
aL0L
aL1L
aL1L
aL0L
aL0L
aL1L
aL4L
aL1L
aL2L
aL0L
aL0L
aL0L
aL0L
aL1L
aL0L
aL0L
aL0L
aL1L
aL32L
aL2L
aL16L
aL6L
aL2L
aL9L
aL1L
aL1L
aL1L
aL1L
aL1L
aL1L
aL1L
aL2L
aL1L
aL1L
aL3L
aL1L
aL4L
aL5L
aL1L
aL1L
aL3L
aL0L
aL4L
aL0L
aL7L
aL1L
aL2L
aL0L
aL10L
aL2L
aL2L
aL1L
aL2L
aL0L
aL0L
aL3L
aL0L
aL0L
aL0L
aL0L
aL0L
aL0L
aL7L
aL7L
aL4L
aL1L
aL4L
aL1L
aL1L
aL3L
aL1L
aL2L
aL4L
aL2L
aL1L
aL0L
aL1L
aL1L
aL1L
aL3L
aL1L
aL30L
aL2L
aL0L
aL1L
aL5L
aL2L
aL3L
aL0L
aL0L
aL0L
aL12L
aL0L
aL0L
aL1L
aL8L
aL8L
aL0L
aL2L
aL6L
aL1L
aL0L
aL1L
aL5L
aL2L
aL0L
aL2L
aL4L
asS'history_length'
p363
I50
sS'recall'
p364
(lp365
I1
aI1
aF0
aF0
aI1
aI1
aF0
aF0
aI1
aF0
aF0.75
aF0.33333333333333331
aF0
aF0
aI1
aI1
aF0.33333333333333331
aF1
aI1
aI1
aI1
aI1
aF0
aF0
aI1
aI1
aI1
aI1
aI1
aF1
aF0
aF0
aF0.59999999999999998
aF0.45098039215686275
aF0.47169811320754718
aF0.51020408163265307
aI1
aF0.90000000000000002
aF0
aF0.33962264150943394
aF1
aF1
aI1
aI1
aF0.5
aI1
aI1
aI1
aI1
aF0
aF0.83870967741935487
aF0.80000000000000004
aI1
aI1
aF1
aI1
aI1
aI1
aI1
aI1
aF1
aF1
aF1
aF1
aF0.66666666666666663
aF1
aF0.5
aF0
aI1
aI1
aI1
aI1
aI1
aI1
aI1
aI1
aI1
aF1
aI1
aF0
aI1
aI1
aF0.67567567567567566
aF0.51351351351351349
aF0.47297297297297297
aF0.5
aI1
aI1
aF0.5
aF0.25
aI1
aI1
aI1
aF1
aI1
aI1
aI1
aF0.55555555555555558
aF0.73333333333333328
aF0.5
aF0.54166666666666663
aF0.55555555555555558
aF0.58333333333333337
aF0
aI1
aI1
aI1
aF1
aF0
aF0
aF0
aI1
aI1
aF0.5
aF0
aI1
aI1
aI1
aI1
aI1
aI1
aI1
aF0.625
aF0.65277777777777779
aI1
aI1
aI1
aI1
aI1
aF0.57894736842105265
aI1
aI1
aI1
aI1
aI1
aI1
aF1
aF0.5
aF1
aF1
aF1
aF1
aF1
aF0
aF0
aF0
aI1
aI1
aF0.52500000000000002
aF0.72727272727272729
aF0.90909090909090906
aF0.90909090909090906
aI1
aF0
aF0
aF0.5714285714285714
aF0
aF0
aF0
aF0
aF0
aF0.66666666666666663
aF0.39534883720930231
aF0.5625
aF0.625
aF0.60416666666666663
aF0.67307692307692313
aF0.47058823529411764
aF0.44897959183673469
aF0.35555555555555557
aF1
aF0.70588235294117652
aF0.5
aF0
aF0
aF0
aF0.66666666666666663
aF1
aF0.40000000000000002
aF0
aF0
aF0
aF0
aF0.66666666666666663
aF1
aF0.5
aF0
aF0
aF0
aF0
aI1
aI1
aF0
aF0
aF0
aF0
aF0
aI1
aF1
aF0.73684210526315785
aF0.21212121212121213
aF0
aF0
aF0
aF0
aF1
aF0
aF0
aF0
aI1
aF0
aI1
aF1
aF0
aF0
aF0.13333333333333333
aF0.80000000000000004
aF0.54166666666666663
aF0.63380281690140849
aF0.51470588235294112
aF0.51639344262295084
aF0.86250000000000004
aF0.50166112956810627
aF0.52727272727272723
aF0.5
aF0.37777777777777777
aF0.17241379310344829
aF0.30769230769230771
aF0.53623188405797106
aF0.5714285714285714
aF0.53284671532846717
aF0.64583333333333337
aF0
aF0.66304347826086951
aF0.0625
aF0.27272727272727271
aF0.51724137931034486
aF0.49477351916376305
aF0.49110320284697506
aF0.5393258426966292
aF0.40000000000000002
aF0.5
aF1
aF1
aF1
aF0.80000000000000004
aF0.66666666666666663
aF1
aF1
aF0.5
aF0.55555555555555558
aF0.75
aF0.80000000000000004
aF1
aF1
aF1
aF1
aF0.8571428571428571
aF1
aF1
aF1
aF0.94999999999999996
aF0.6404494382022472
aF0.33333333333333331
aF0.27272727272727271
aF0
aF0.5
aF0.18181818181818182
aF0.66666666666666663
aF0.5
aF0.66666666666666663
aF0.8571428571428571
aF0.66666666666666663
aF0.66666666666666663
aF0.66666666666666663
aF0.5
aF0.66666666666666663
aF0.66666666666666663
aF0.5714285714285714
aF0.66666666666666663
aF0.42857142857142855
aF0.2857142857142857
aF0.66666666666666663
aF0.66666666666666663
aF0.40000000000000002
aF1
aF0.33333333333333331
aF1
aF0.22222222222222221
aF0.66666666666666663
aF0.33333333333333331
aF1
aF0.47368421052631576
aF0.33333333333333331
aF0.33333333333333331
aF0.5
aF0
aI1
aI1
aF0.40000000000000002
aI1
aI1
aI1
aI1
aI1
aI1
aF0.22222222222222221
aF0.125
aF0
aF0.80000000000000004
aF0
aF0
aF0
aF0
aF0
aF0
aF0.5
aF0.66666666666666663
aF0.5
aI1
aF0
aF0.5
aF0.5
aF0.8125
aF0.93333333333333335
aF0.63414634146341464
aF0
aF1
aF0
aF0.2857142857142857
aF0
aF0.40000000000000002
aI1
aF1
aI1
aF0.6470588235294118
aF1
aF1
aF0.75
aF0.1111111111111111
aF0
aI1
aF0
aF0.14285714285714285
aF0
aI1
aF0
aF0.16666666666666666
aF0.33333333333333331
aI1
aF0
aF0
asS'durations'
p366
(lp367
F0.31623697280883789
aF0.00021886825561523438
aF0.0091190338134765625
aF0.024916887283325195
aF0.015203952789306641
aF0.012757062911987305
aF0.0099649429321289062
aF0.0095920562744140625
aF0.01680302619934082
aF0.026334047317504883
aF0.024825096130371094
aF0.036082983016967773
aF0.0091419219970703125
aF0.0049059391021728516
aF0.47332215309143066
aF0.0090379714965820312
aF0.013768911361694336
aF0.016464948654174805
aF0.011739969253540039
aF0.026449203491210938
aF0.013509035110473633
aF0.014017105102539062
aF0.0099790096282958984
aF0.012674093246459961
aF0.031634092330932617
aF0.010490894317626953
aF0.010754108428955078
aF0.01314091682434082
aF0.015663862228393555
aF0.037436962127685547
aF0.014642953872680664
aF0.062453031539916992
aF0.047533988952636719
aF0.019955873489379883
aF0.050152063369750977
aF0.022490978240966797
aF0.00020098686218261719
aF0.052753210067749023
aF0.015846014022827148
aF0.068010091781616211
aF0.086594104766845703
aF0.013864040374755859
aF0.00019192695617675781
aF0.027827978134155273
aF0.050775051116943359
aF0.030727863311767578
aF0.032414913177490234
aF0.016995906829833984
aF0.028586149215698242
aF0.05943608283996582
aF0.028725862503051758
aF0.02591705322265625
aF0.015362024307250977
aF0.028885126113891602
aF0.059545040130615234
aF0.024289846420288086
aF0.029756069183349609
aF0.021253824234008789
aF0.026852846145629883
aF0.062906980514526367
aF0.034833908081054688
aF0.034241914749145508
aF0.028956890106201172
aF0.026548862457275391
aF0.31186008453369141
aF0.019262075424194336
aF0.030328035354614258
aF0.025574922561645508
aF0.019155979156494141
aF0.051055908203125
aF0.025444984436035156
aF0.027939081192016602
aF0.027938127517700195
aF0.027332067489624023
aF0.046400070190429688
aF0.033478975296020508
aF0.025871992111206055
aF0.019106149673461914
aF0.0029070377349853516
aF0.052654027938842773
aF0.030037164688110352
aF0.0311279296875
aF0.059250831604003906
aF0.021418094635009766
aF0.040240049362182617
aF0.021417140960693359
aF0.021023035049438477
aF0.024535894393920898
aF0.029024839401245117
aF0.057456016540527344
aF0.029317140579223633
aF0.02486419677734375
aF0.024266958236694336
aF0.029767990112304688
aF0.051417112350463867
aF0.022121191024780273
aF0.029746055603027344
aF0.025841951370239258
aF0.011939048767089844
aF0.044072151184082031
aF0.029722929000854492
aF0.028723001480102539
aF0.027899980545043945
aF0.034644842147827148
aF0.054236888885498047
aF0.027448892593383789
aF0.030453205108642578
aF0.035002946853637695
aF0.029107093811035156
aF0.051128864288330078
aF0.02490687370300293
aF0.023015975952148438
aF0.00019288063049316406
aF0.031569004058837891
aF0.052078008651733398
aF0.025877952575683594
aF0.022813081741333008
aF0.027198076248168945
aF0.025300979614257812
aF0.056328058242797852
aF0.026611089706420898
aF0.025626897811889648
aF0.029961824417114258
aF0.028194904327392578
aF0.058427810668945312
aF0.029376029968261719
aF0.025256872177124023
aF0.032454967498779297
aF0.034564018249511719
aF0.059257984161376953
aF0.0048019886016845703
aF0.017287969589233398
aF0.00020599365234375
aF0.028577089309692383
aF0.054158926010131836
aF0.025954008102416992
aF0.029134035110473633
aF0.03033900260925293
aF0.02772212028503418
aF0.058974027633666992
aF0.028171062469482422
aF0.026837825775146484
aF0.033855915069580078
aF0.024970054626464844
aF0.057901144027709961
aF0.025702953338623047
aF0.00085806846618652344
aF0.00019502639770507812
aF0.020738124847412109
aF0.058485984802246094
aF0.027375936508178711
aF0.02901005744934082
aF0.00019383430480957031
aF0.026162862777709961
aF0.060646772384643555
aF0.014373064041137695
aF0.029256820678710938
aF0.028369903564453125
aF0.025755167007446289
aF0.055257081985473633
aF0.021445035934448242
aF0.032581806182861328
aF0.023473978042602539
aF0.033074140548706055
aF0.05669403076171875
aF0.032191991806030273
aF0.035401105880737305
aF0.035326957702636719
aF0.031918048858642578
aF0.054516792297363281
aF0.0097219944000244141
aF0.035283088684082031
aF0.027408838272094727
aF0.031062841415405273
aF0.051535129547119141
aF0.028553009033203125
aF0.032516956329345703
aF0.0047669410705566406
aF0.035915136337280273
aF0.052865028381347656
aF0.022738933563232422
aF0.026087045669555664
aF0.028854846954345703
aF0.026324033737182617
aF0.040831089019775391
aF0.03246307373046875
aF0.028863191604614258
aF0.030854940414428711
aF0.032568931579589844
aF0.047884941101074219
aF0.0002079010009765625
aF0.013370037078857422
aF0.0279998779296875
aF0.027645111083984375
aF0.053547859191894531
aF0.026566028594970703
aF0.025815963745117188
aF0.00019693374633789062
aF0.018896818161010742
aF0.060305118560791016
aF0.031783103942871094
aF0.029280900955200195
aF0.029366970062255859
aF0.026569843292236328
aF0.055946111679077148
aF0.014850854873657227
aF0.037621974945068359
aF0.021888971328735352
aF0.016446113586425781
aF0.0275421142578125
aF0.026168107986450195
aF0.00019693374633789062
aF0.013978958129882812
aF0.027272939682006836
aF0.057068109512329102
aF0.033624887466430664
aF0.038038015365600586
aF0.034484148025512695
aF0.040009021759033203
aF0.082794904708862305
aF0.070993900299072266
aF0.036190032958984375
aF0.16928601264953613
aF0.048668146133422852
aF0.053339958190917969
aF0.035746097564697266
aF0.025425910949707031
aF0.016516923904418945
aF0.035088062286376953
aF0.063534975051879883
aF0.077405929565429688
aF0.14956903457641602
aF0.00027298927307128906
aF0.072836875915527344
aF0.058866977691650391
aF0.018900871276855469
aF0.11709308624267578
aF0.18977618217468262
aF0.17844319343566895
aF0.12663006782531738
aF0.028896093368530273
aF0.036894083023071289
aF0.0050261020660400391
aF0.046499013900756836
aF0.057248830795288086
aF0.037474155426025391
aF0.039626836776733398
aF0.032914161682128906
aF0.038763999938964844
aF0.062185049057006836
aF0.049551010131835938
aF0.035966157913208008
aF0.037214040756225586
aF0.027293920516967773
aF0.064074993133544922
aF0.035872936248779297
aF0.03760218620300293
aF0.011747121810913086
aF0.039197921752929688
aF0.067109107971191406
aF0.03717803955078125
aF0.034564971923828125
aF0.056005001068115234
aF0.0075719356536865234
aF0.046046018600463867
aF0.03213191032409668
aF0.0396728515625
aF0.041177034378051758
aF0.039903163909912109
aF0.060761928558349609
aF0.030759096145629883
aF0.01449894905090332
aF0.03802800178527832
aF0.033455848693847656
aF0.063829898834228516
aF0.031976938247680664
aF0.031322956085205078
aF0.040227890014648438
aF0.0091450214385986328
aF0.062674045562744141
aF0.04212498664855957
aF0.035959959030151367
aF0.030119895935058594
aF0.027709007263183594
aF0.07282710075378418
aF0.053949117660522461
aF0.037285089492797852
aF0.039212942123413086
aF0.043779850006103516
aF0.068559169769287109
aF0.023611068725585938
aF0.042007923126220703
aF0.016535043716430664
aF0.039036035537719727
aF0.065196990966796875
aF0.037127017974853516
aF0.06488800048828125
aF0.027791976928710938
aF0.027864933013916016
aF0.045204877853393555
aF0.0097210407257080078
aF0.033489227294921875
aF0.026923894882202148
aF0.034332036972045898
aF0.060842990875244141
aF0.02993011474609375
aF0.042649984359741211
aF0.039211034774780273
aF0.035274982452392578
aF0.067246913909912109
aF0.033164024353027344
aF0.036983966827392578
aF0.028039216995239258
aF0.036561012268066406
aF0.063172101974487305
aF0.033262968063354492
aF0.036197185516357422
aF0.038306951522827148
aF0.037601947784423828
aF0.052936077117919922
aF0.00024700164794921875
aF0.038327932357788086
aF0.033668994903564453
aF0.038497209548950195
aF0.061195135116577148
aF0.039520025253295898
aF0.013391017913818359
aF0.02834010124206543
aF0.0002079010009765625
aF0.11011600494384766
aF0.030254125595092773
aF0.037763833999633789
aF0.032055854797363281
aF0.0016219615936279297
aF0.034056186676025391
aF0.036470174789428711
aF0.03496098518371582
aF0.044013023376464844
aF0.039366960525512695
aF0.067176103591918945
aF0.032120943069458008
aF0.035175085067749023
aF0.036653041839599609
aF0.039938211441040039
aF0.062387943267822266
aF0.00071310997009277344
aF0.00023102760314941406
aF0.041556835174560547
aF0.037863969802856445
aF0.033259868621826172
aF0.032714128494262695
aF0.036427021026611328
asS'step'
p368
(lp369
I1
aI2
aI3
aI4
aI5
aI6
aI7
aI8
aI9
aI10
aI11
aI12
aI13
aI14
aI15
aI16
aI17
aI18
aI19
aI20
aI21
aI22
aI23
aI24
aI25
aI26
aI27
aI28
aI29
aI30
aI31
aI32
aI33
aI34
aI35
aI36
aI37
aI38
aI39
aI40
aI41
aI42
aI43
aI44
aI45
aI46
aI47
aI48
aI49
aI50
aI51
aI52
aI53
aI54
aI55
aI56
aI57
aI58
aI59
aI60
aI61
aI62
aI63
aI64
aI65
aI66
aI67
aI68
aI69
aI70
aI71
aI72
aI73
aI74
aI75
aI76
aI77
aI78
aI79
aI80
aI81
aI82
aI83
aI84
aI85
aI86
aI87
aI88
aI89
aI90
aI91
aI92
aI93
aI94
aI95
aI96
aI97
aI98
aI99
aI100
aI101
aI102
aI103
aI104
aI105
aI106
aI107
aI108
aI109
aI110
aI111
aI112
aI113
aI114
aI115
aI116
aI117
aI118
aI119
aI120
aI121
aI122
aI123
aI124
aI125
aI126
aI127
aI128
aI129
aI130
aI131
aI132
aI133
aI134
aI135
aI136
aI137
aI138
aI139
aI140
aI141
aI142
aI143
aI144
aI145
aI146
aI147
aI148
aI149
aI150
aI151
aI152
aI153
aI154
aI155
aI156
aI157
aI158
aI159
aI160
aI161
aI162
aI163
aI164
aI165
aI166
aI167
aI168
aI169
aI170
aI171
aI172
aI173
aI174
aI175
aI176
aI177
aI178
aI179
aI180
aI181
aI182
aI183
aI184
aI185
aI186
aI187
aI188
aI189
aI190
aI191
aI192
aI193
aI194
aI195
aI196
aI197
aI198
aI199
aI200
aI201
aI202
aI203
aI204
aI205
aI206
aI207
aI208
aI209
aI210
aI211
aI212
aI213
aI214
aI215
aI216
aI217
aI218
aI219
aI220
aI221
aI222
aI223
aI224
aI225
aI226
aI227
aI228
aI229
aI230
aI231
aI232
aI233
aI234
aI235
aI236
aI237
aI238
aI239
aI240
aI241
aI242
aI243
aI244
aI245
aI246
aI247
aI248
aI249
aI250
aI251
aI252
aI253
aI254
aI255
aI256
aI257
aI258
aI259
aI260
aI261
aI262
aI263
aI264
aI265
aI266
aI267
aI268
aI269
aI270
aI271
aI272
aI273
aI274
aI275
aI276
aI277
aI278
aI279
aI280
aI281
aI282
aI283
aI284
aI285
aI286
aI287
aI288
aI289
aI290
aI291
aI292
aI293
aI294
aI295
aI296
aI297
aI298
aI299
aI300
aI301
aI302
aI303
aI304
aI305
aI306
aI307
aI308
aI309
aI310
aI311
aI312
aI313
aI314
aI315
aI316
aI317
aI318
aI319
aI320
aI321
aI322
aI323
aI324
aI325
aI326
aI327
aI328
aI329
aI330
aI331
aI332
aI333
aI334
aI335
aI336
aI337
aI338
aI339
aI340
aI341
aI342
aI343
aI344
aI345
aI346
aI347
aI348
aI349
aI350
aI351
aI352
asS'agent'
p370
S'mlpclassifier'
p371
sS'sched_time'
p372
F0.5
sS'scenarios'
p373
(lp374
S'2016-01-13T09:17:00'
p375
aS'2016-01-13T10:39:00'
p376
aS'2016-01-14T12:15:00'
p377
aS'2016-01-15T09:50:00'
p378
aS'2016-01-16T00:22:00'
p379
aS'2016-01-17T00:21:00'
p380
aS'2016-01-18T00:19:00'
p381
aS'2016-01-19T00:15:00'
p382
aS'2016-01-20T00:13:00'
p383
aS'2016-01-21T00:12:00'
p384
aS'2016-01-22T00:11:00'
p385
aS'2016-01-23T00:09:00'
p386
aS'2016-01-24T00:09:00'
p387
aS'2016-01-25T00:08:00'
p388
aS'2016-01-26T00:07:00'
p389
aS'2016-01-27T00:06:00'
p390
aS'2016-01-28T00:04:00'
p391
aS'2016-01-29T00:04:00'
p392
aS'2016-01-30T00:04:00'
p393
aS'2016-01-31T00:02:00'
p394
aS'2016-02-01T00:01:00'
p395
aS'2016-02-02T00:01:00'
p396
aS'2016-02-02T23:57:00'
p397
aS'2016-02-03T23:56:00'
p398
aS'2016-02-04T23:55:00'
p399
aS'2016-02-05T23:53:00'
p400
aS'2016-02-06T23:53:00'
p401
aS'2016-02-07T23:52:00'
p402
aS'2016-02-08T23:50:00'
p403
aS'2016-02-09T23:48:00'
p404
aS'2016-02-10T23:47:00'
p405
aS'2016-02-11T23:46:00'
p406
aS'2016-02-12T23:42:00'
p407
aS'2016-02-13T23:41:00'
p408
aS'2016-02-14T23:41:00'
p409
aS'2016-02-15T23:41:00'
p410
aS'2016-02-16T00:49:00'
p411
aS'2016-02-17T08:55:00'
p412
aS'2016-02-18T02:45:00'
p413
aS'2016-02-19T02:45:00'
p414
aS'2016-02-20T02:18:00'
p415
aS'2016-02-21T02:18:00'
p416
aS'2016-02-22T00:29:00'
p417
aS'2016-02-23T07:56:00'
p418
aS'2016-02-24T03:00:00'
p419
aS'2016-02-25T02:18:00'
p420
aS'2016-02-26T02:15:00'
p421
aS'2016-02-27T02:14:00'
p422
aS'2016-02-28T02:14:00'
p423
aS'2016-02-29T02:14:00'
p424
aS'2016-03-01T00:43:00'
p425
aS'2016-03-02T00:16:00'
p426
aS'2016-03-03T00:15:00'
p427
aS'2016-03-04T00:10:00'
p428
aS'2016-03-05T00:09:00'
p429
aS'2016-03-06T00:05:00'
p430
aS'2016-03-06T23:59:00'
p431
aS'2016-03-07T23:59:00'
p432
aS'2016-03-08T23:54:00'
p433
aS'2016-03-09T23:54:00'
p434
aS'2016-03-10T21:55:00'
p435
aS'2016-03-11T21:52:00'
p436
aS'2016-03-12T21:51:00'
p437
aS'2016-03-13T21:51:00'
p438
aS'2016-03-14T21:51:00'
p439
aS'2016-03-15T19:52:00'
p440
aS'2016-03-16T19:52:00'
p441
aS'2016-03-17T19:52:00'
p442
aS'2016-03-18T19:51:00'
p443
aS'2016-03-19T19:51:00'
p444
aS'2016-03-20T19:50:00'
p445
aS'2016-03-21T19:50:00'
p446
aS'2016-03-22T19:49:00'
p447
aS'2016-03-23T19:48:00'
p448
aS'2016-03-24T19:48:00'
p449
aS'2016-03-25T19:47:00'
p450
aS'2016-03-26T19:46:00'
p451
aS'2016-03-27T19:45:00'
p452
aS'2016-03-28T18:02:00'
p453
aS'2016-03-29T18:02:00'
p454
aS'2016-03-30T18:02:00'
p455
aS'2016-03-31T18:02:00'
p456
aS'2016-04-01T18:02:00'
p457
aS'2016-04-02T18:01:00'
p458
aS'2016-04-03T18:00:00'
p459
aS'2016-04-04T18:00:00'
p460
aS'2016-04-05T18:00:00'
p461
aS'2016-04-06T18:00:00'
p462
aS'2016-04-07T18:00:00'
p463
aS'2016-04-08T18:00:00'
p464
aS'2016-04-09T18:00:00'
p465
aS'2016-04-10T18:00:00'
p466
aS'2016-04-11T18:00:00'
p467
aS'2016-04-12T18:00:00'
p468
aS'2016-04-13T18:00:00'
p469
aS'2016-04-14T18:00:00'
p470
aS'2016-04-15T18:00:00'
p471
aS'2016-04-16T18:00:00'
p472
aS'2016-04-16T18:40:00'
p473
aS'2016-04-17T18:39:00'
p474
aS'2016-04-17T20:14:00'
p475
aS'2016-04-18T19:54:00'
p476
aS'2016-04-19T18:42:00'
p477
aS'2016-04-20T18:41:00'
p478
aS'2016-04-21T18:41:00'
p479
aS'2016-04-22T18:41:00'
p480
aS'2016-04-23T18:40:00'
p481
aS'2016-04-24T18:40:00'
p482
aS'2016-04-25T18:39:00'
p483
aS'2016-04-26T18:39:00'
p484
aS'2016-04-27T18:39:00'
p485
aS'2016-04-28T18:39:00'
p486
aS'2016-04-28T20:39:00'
p487
aS'2016-05-03T18:00:00'
p488
aS'2016-05-04T18:00:00'
p489
aS'2016-05-05T18:00:00'
p490
aS'2016-05-06T18:00:00'
p491
aS'2016-05-07T18:00:00'
p492
aS'2016-05-08T18:00:00'
p493
aS'2016-05-09T18:00:00'
p494
aS'2016-05-10T18:00:00'
p495
aS'2016-05-11T18:00:00'
p496
aS'2016-05-12T18:00:00'
p497
aS'2016-05-13T18:00:00'
p498
aS'2016-05-14T18:00:00'
p499
aS'2016-05-15T18:00:00'
p500
aS'2016-05-15T20:39:00'
p501
aS'2016-05-16T20:38:00'
p502
aS'2016-05-17T20:38:00'
p503
aS'2016-05-18T20:38:00'
p504
aS'2016-05-19T19:05:00'
p505
aS'2016-05-20T18:59:00'
p506
aS'2016-05-20T20:47:00'
p507
aS'2016-05-22T18:01:00'
p508
aS'2016-05-23T18:01:00'
p509
aS'2016-05-24T18:00:00'
p510
aS'2016-05-25T18:00:00'
p511
aS'2016-05-25T20:45:00'
p512
aS'2016-05-26T20:40:00'
p513
aS'2016-05-27T20:40:00'
p514
aS'2016-05-28T20:40:00'
p515
aS'2016-05-29T20:40:00'
p516
aS'2016-05-30T20:40:00'
p517
aS'2016-05-31T20:39:00'
p518
aS'2016-06-01T20:36:00'
p519
aS'2016-06-02T20:36:00'
p520
aS'2016-06-03T20:36:00'
p521
aS'2016-06-03T20:41:00'
p522
aS'2016-06-07T18:01:00'
p523
aS'2016-06-08T18:00:00'
p524
aS'2016-06-09T18:00:00'
p525
aS'2016-06-10T18:00:00'
p526
aS'2016-06-10T20:23:00'
p527
aS'2016-06-12T18:09:00'
p528
aS'2016-06-13T18:09:00'
p529
aS'2016-06-14T18:08:00'
p530
aS'2016-06-15T18:08:00'
p531
aS'2016-06-16T18:08:00'
p532
aS'2016-06-17T18:07:00'
p533
aS'2016-06-18T18:05:00'
p534
aS'2016-06-19T18:05:00'
p535
aS'2016-06-20T18:05:00'
p536
aS'2016-06-21T18:00:00'
p537
aS'2016-06-22T18:00:00'
p538
aS'2016-06-22T19:10:00'
p539
aS'2016-06-23T19:10:00'
p540
aS'2016-06-24T19:10:00'
p541
aS'2016-06-25T19:09:00'
p542
aS'2016-06-26T19:08:00'
p543
aS'2016-06-27T19:07:00'
p544
aS'2016-06-28T18:56:00'
p545
aS'2016-06-29T18:54:00'
p546
aS'2016-06-30T18:54:00'
p547
aS'2016-07-01T18:52:00'
p548
aS'2016-07-02T18:51:00'
p549
aS'2016-07-03T18:51:00'
p550
aS'2016-07-04T18:51:00'
p551
aS'2016-07-05T18:51:00'
p552
aS'2016-07-06T18:49:00'
p553
aS'2016-07-07T18:49:00'
p554
aS'2016-07-08T18:49:00'
p555
aS'2016-07-09T18:48:00'
p556
aS'2016-07-10T18:48:00'
p557
aS'2016-07-11T18:47:00'
p558
aS'2016-07-12T18:47:00'
p559
aS'2016-07-13T18:46:00'
p560
aS'2016-07-14T18:46:00'
p561
aS'2016-07-15T18:45:00'
p562
aS'2016-07-16T18:42:00'
p563
aS'2016-07-17T18:42:00'
p564
aS'2016-07-17T20:44:00'
p565
aS'2016-07-19T18:00:00'
p566
aS'2016-07-20T18:00:00'
p567
aS'2016-07-21T18:00:00'
p568
aS'2016-07-22T18:00:00'
p569
aS'2016-07-23T18:00:00'
p570
aS'2016-07-24T18:00:00'
p571
aS'2016-07-24T20:44:00'
p572
aS'2016-07-26T18:00:00'
p573
aS'2016-07-27T18:00:00'
p574
aS'2016-07-28T18:00:00'
p575
aS'2016-07-29T18:00:00'
p576
aS'2016-07-30T18:00:00'
p577
aS'2016-07-31T18:00:00'
p578
aS'2016-07-31T20:43:00'
p579
aS'2016-08-01T20:43:00'
p580
aS'2016-08-02T19:07:00'
p581
aS'2016-08-03T19:00:00'
p582
aS'2016-08-04T18:57:00'
p583
aS'2016-08-04T20:46:00'
p584
aS'2016-08-07T18:00:00'
p585
aS'2016-08-07T20:43:00'
p586
aS'2016-08-09T18:01:00'
p587
aS'2016-08-10T18:01:00'
p588
aS'2016-08-11T18:01:00'
p589
aS'2016-08-12T18:01:00'
p590
aS'2016-08-13T18:01:00'
p591
aS'2016-08-14T18:01:00'
p592
aS'2016-08-15T18:01:00'
p593
aS'2016-08-16T18:01:00'
p594
aS'2016-08-17T18:00:00'
p595
aS'2016-08-18T11:33:00'
p596
aS'2016-08-19T11:03:00'
p597
aS'2016-08-20T11:03:00'
p598
aS'2016-08-20T18:43:00'
p599
aS'2016-08-21T18:43:00'
p600
aS'2016-08-22T18:43:00'
p601
aS'2016-08-23T18:29:00'
p602
aS'2016-08-24T18:08:00'
p603
aS'2016-08-25T18:08:00'
p604
aS'2016-08-26T18:01:00'
p605
aS'2016-08-27T18:01:00'
p606
aS'2016-08-27T23:57:00'
p607
aS'2016-08-29T13:04:00'
p608
aS'2016-08-30T08:00:00'
p609
aS'2016-08-30T19:08:00'
p610
aS'2016-08-31T19:06:00'
p611
aS'2016-09-01T19:04:00'
p612
aS'2016-09-02T19:02:00'
p613
aS'2016-09-03T17:50:00'
p614
aS'2016-09-04T14:30:00'
p615
aS'2016-09-04T22:37:00'
p616
aS'2016-09-05T22:32:00'
p617
aS'2016-09-06T19:09:00'
p618
aS'2016-09-07T19:00:00'
p619
aS'2016-09-08T18:59:00'
p620
aS'2016-09-09T18:58:00'
p621
aS'2016-09-10T18:58:00'
p622
aS'2016-09-11T18:58:00'
p623
aS'2016-09-12T18:58:00'
p624
aS'2016-09-13T18:53:00'
p625
aS'2016-09-14T18:50:00'
p626
aS'2016-09-15T18:50:00'
p627
aS'2016-09-16T18:50:00'
p628
aS'2016-09-17T18:49:00'
p629
aS'2016-09-18T18:49:00'
p630
aS'2016-09-19T18:48:00'
p631
aS'2016-09-20T18:48:00'
p632
aS'2016-09-21T18:48:00'
p633
aS'2016-09-22T18:48:00'
p634
aS'2016-09-23T18:48:00'
p635
aS'2016-09-24T18:48:00'
p636
aS'2016-09-25T18:48:00'
p637
aS'2016-09-26T18:28:00'
p638
aS'2016-09-27T18:27:00'
p639
aS'2016-09-28T18:27:00'
p640
aS'2016-09-29T18:25:00'
p641
aS'2016-09-30T18:24:00'
p642
aS'2016-10-01T18:24:00'
p643
aS'2016-10-02T18:24:00'
p644
aS'2016-10-03T18:23:00'
p645
aS'2016-10-04T18:23:00'
p646
aS'2016-10-05T18:23:00'
p647
aS'2016-10-06T18:23:00'
p648
aS'2016-10-07T18:23:00'
p649
aS'2016-10-08T18:23:00'
p650
aS'2016-10-09T18:21:00'
p651
aS'2016-10-10T18:21:00'
p652
aS'2016-10-11T18:20:00'
p653
aS'2016-10-12T18:20:00'
p654
aS'2016-10-13T18:18:00'
p655
aS'2016-10-14T18:17:00'
p656
aS'2016-10-15T18:17:00'
p657
aS'2016-10-16T18:17:00'
p658
aS'2016-10-17T18:16:00'
p659
aS'2016-10-18T18:15:00'
p660
aS'2016-10-19T18:15:00'
p661
aS'2016-10-20T18:15:00'
p662
aS'2016-10-21T18:15:00'
p663
aS'2016-10-22T18:15:00'
p664
aS'2016-10-23T18:15:00'
p665
aS'2016-10-24T18:13:00'
p666
aS'2016-10-25T18:11:00'
p667
aS'2016-10-26T15:51:00'
p668
aS'2016-10-27T11:55:00'
p669
aS'2016-10-27T20:43:00'
p670
aS'2016-10-28T20:43:00'
p671
aS'2016-10-29T20:43:00'
p672
aS'2016-10-30T20:43:00'
p673
aS'2016-10-31T20:43:00'
p674
aS'2016-11-01T19:08:00'
p675
aS'2016-11-02T19:01:00'
p676
aS'2016-11-03T19:00:00'
p677
aS'2016-11-04T18:58:00'
p678
aS'2016-11-05T18:58:00'
p679
aS'2016-11-06T18:56:00'
p680
aS'2016-11-07T18:55:00'
p681
aS'2016-11-08T18:54:00'
p682
aS'2016-11-09T18:53:00'
p683
aS'2016-11-10T18:53:00'
p684
aS'2016-11-11T18:53:00'
p685
aS'2016-11-12T18:53:00'
p686
aS'2016-11-13T18:53:00'
p687
aS'2016-11-14T18:51:00'
p688
aS'2016-11-15T18:49:00'
p689
aS'2016-11-16T18:49:00'
p690
aS'2016-11-17T18:49:00'
p691
aS'2016-11-18T18:47:00'
p692
aS'2016-11-19T18:44:00'
p693
aS'2016-11-20T18:44:00'
p694
aS'2016-11-20T21:21:00'
p695
aS'2016-11-22T18:00:00'
p696
aS'2016-11-23T18:00:00'
p697
aS'2016-11-24T18:00:00'
p698
aS'2016-11-25T18:00:00'
p699
aS'2016-11-25T21:16:00'
p700
aS'2016-11-26T19:27:00'
p701
aS'2016-11-27T19:27:00'
p702
aS'2016-11-27T21:24:00'
p703
aS'2016-11-29T07:43:00'
p704
aS'2016-11-29T20:46:00'
p705
aS'2016-11-30T20:45:00'
p706
aS'2016-12-01T20:44:00'
p707
aS'2016-12-02T20:44:00'
p708
aS'2016-12-03T16:20:00'
p709
aS'2016-12-05T18:00:00'
p710
aS'2016-12-06T18:00:00'
p711
aS'2016-12-07T18:00:00'
p712
aS'2016-12-08T09:13:00'
p713
aS'2016-12-09T08:59:00'
p714
aS'2016-12-10T08:18:00'
p715
aS'2016-12-10T20:47:00'
p716
aS'2016-12-11T20:47:00'
p717
aS'2016-12-12T20:47:00'
p718
aS'2016-12-13T20:46:00'
p719
aS'2016-12-14T20:46:00'
p720
aS'2016-12-14T20:49:00'
p721
aS'2016-12-16T13:47:00'
p722
aS'2016-12-17T10:35:00'
p723
aS'2016-12-17T20:46:00'
p724
aS'2016-12-20T07:04:00'
p725
aS'2016-12-20T20:45:00'
p726
asS'detected'
p727
(lp728
I0
aI0
aI0
aI0
aI0
aI0
aI0
aI0
aI0
aI0
aI3
aI3
aI0
aI0
aI0
aI0
aI1
aI1
aI0
aI0
aI0
aI0
aI0
aI0
aI0
aI0
aI0
aI0
aI0
aI1
aI0
aI0
aI3
aI23
aI25
aI25
aI0
aI9
aI0
aI18
aI2
aI1
aI0
aI0
aI4
aI0
aI0
aI0
aI0
aI0
aI26
aI24
aI0
aI0
aI1
aI0
aI0
aI0
aI0
aI0
aI1
aI1
aI1
aI1
aI2
aI1
aI1
aI0
aI0
aI0
aI0
aI0
aI0
aI0
aI0
aI0
aI0
aI1
aI0
aI0
aI0
aI0
aI50
aI38
aI35
aI37
aI0
aI0
aI1
aI2
aI0
aI0
aI0
aI1
aI0
aI0
aI0
aI40
aI11
aI17
aI39
aI40
aI42
aI0
aI0
aI0
aI0
aI1
aI0
aI0
aI0
aI0
aI0
aI1
aI0
aI0
aI0
aI0
aI0
aI0
aI0
aI0
aI45
aI47
aI0
aI0
aI0
aI0
aI0
aI33
aI0
aI0
aI0
aI0
aI0
aI0
aI1
aI1
aI1
aI1
aI2
aI1
aI1
aI0
aI0
aI0
aI0
aI0
aI21
aI24
aI30
aI30
aI0
aI0
aI0
aI4
aI0
aI0
aI0
aI0
aI0
aI4
aI17
aI27
aI30
aI29
aI35
aI24
aI22
aI16
aI2
aI12
aI1
aI0
aI0
aI0
aI2
aI3
aI6
aI0
aI0
aI0
aI0
aI2
aI1
aI1
aI0
aI0
aI0
aI0
aI0
aI0
aI0
aI0
aI0
aI0
aI0
aI0
aI2
aI42
aI7
aI0
aI0
aI0
aI0
aI1
aI0
aI0
aI0
aI0
aI0
aI0
aI1
aI0
aI0
aI2
aI12
aI39
aI45
aI35
aI63
aI69
aI151
aI58
aI8
aI17
aI5
aI8
aI37
aI12
aI73
aI124
aI0
aI61
aI1
aI3
aI90
aI142
aI138
aI48
aI2
aI1
aI1
aI6
aI4
aI4
aI2
aI1
aI3
aI1
aI5
aI3
aI8
aI3
aI3
aI3
aI3
aI6
aI2
aI2
aI2
aI19
aI57
aI1
aI6
aI0
aI2
aI2
aI2
aI1
aI2
aI6
aI2
aI2
aI2
aI2
aI2
aI2
aI4
aI2
aI3
aI2
aI2
aI2
aI2
aI5
aI2
aI2
aI2
aI2
aI1
aI2
aI9
aI1
aI1
aI1
aI0
aI0
aI0
aI2
aI0
aI0
aI0
aI0
aI0
aI0
aI2
aI1
aI0
aI4
aI0
aI0
aI0
aI0
aI0
aI0
aI4
aI4
aI1
aI0
aI0
aI1
aI1
aI13
aI14
aI52
aI0
aI14
aI0
aI2
aI0
aI2
aI0
aI4
aI0
aI22
aI5
aI1
aI3
aI1
aI0
aI0
aI0
aI1
aI0
aI0
aI0
aI1
aI1
aI0
aI0
aI0
asS'result'
p729
(lp730
(lp731
I0
aL0L
aI0
aI1
aI1
aI1
a(lp732
aa(lp733
I0
aL0L
aI0
aI1
aI1
aI1
a(lp734
aa(lp735
I0
aL1L
aI0
aF0
aF0
aI123
a(lp736
aa(lp737
I0
aL1L
aI0
aF0
aF0
aI123
a(lp738
aa(lp739
I0
aL0L
aI0
aI1
aI1
aI1
a(lp740
aa(lp741
I0
aL0L
aI0
aI1
aI1
aI1
a(lp742
aa(lp743
I0
aL1L
aI0
aF0
aF0
aI123
a(lp744
aa(lp745
I0
aL1L
aI0
aF0
aF0
aI123
a(lp746
aa(lp747
I0
aL0L
aI0
aI1
aI1
aI1
a(lp748
aa(lp749
I0
aL4L
aI0
aF0
aF0
aI123
a(lp750
aa(lp751
I3
aL1L
aI9
aF0.54449152542372881
aF0.75
aI123
a(lp752
I9
aI11
aI30
aaa(lp753
I3
aL6L
aI33
aF0.18950617283950616
aF0.33333333333333331
aI123
a(lp754
I33
aI35
aI50
aaa(lp755
I0
aL1L
aI0
aF0
aF0
aI123
a(lp756
aa(lp757
I0
aL1L
aI0
aF0
aF0
aI123
a(lp758
aa(lp759
I0
aL0L
aI0
aI1
aI1
aI1
a(lp760
aa(lp761
I0
aL0L
aI0
aI1
aI1
aI1
a(lp762
aa(lp763
I1
aL2L
aI24
aF0.095959595959595939
aF0.33333333333333331
aI123
a(lp764
I24
aaa(lp765
I1
aL0L
aI1
aF0.98484848484848486
aF1
aI123
a(lp766
I1
aaa(lp767
I0
aL0L
aI0
aI1
aI1
aI1
a(lp768
aa(lp769
I0
aL0L
aI0
aI1
aI1
aI1
a(lp770
aa(lp771
I0
aL0L
aI0
aI1
aI1
aI1
a(lp772
aa(lp773
I0
aL0L
aI0
aI1
aI1
aI1
a(lp774
aa(lp775
I0
aL4L
aI0
aF0
aF0
aI123
a(lp776
aa(lp777
I0
aL1L
aI0
aF0
aF0
aI123
a(lp778
aa(lp779
I0
aL0L
aI0
aI1
aI1
aI1
a(lp780
aa(lp781
I0
aL0L
aI0
aI1
aI1
aI1
a(lp782
aa(lp783
I0
aL0L
aI0
aI1
aI1
aI1
a(lp784
aa(lp785
I0
aL0L
aI0
aI1
aI1
aI1
a(lp786
aa(lp787
I0
aL0L
aI0
aI1
aI1
aI1
a(lp788
aa(lp789
I1
aL0L
aI24
aF0.41250000000000003
aF1
aI123
a(lp790
I24
aaa(lp791
I0
aL5L
aI0
aF0
aF0
aI123
a(lp792
aa(lp793
I0
aL11L
aI0
aF0
aF0
aI123
a(lp794
aa(lp795
I3
aL2L
aI12
aF0.53185840707964605
aF0.59999999999999998
aI123
a(lp796
I12
aI13
aI15
aaa(lp797
I23
aL28L
aI1
aF0.34918300653594769
aF0.45098039215686275
aI123
a(lp798
I1
aI2
aI3
aI6
aI7
aI8
aI9
aI10
aI11
aI12
aI13
aI14
aI15
aI16
aI17
aI18
aI19
aI20
aI21
aI23
aI25
aI26
aI27
aaa(lp799
I25
aL28L
aI1
aF0.37477175897748022
aF0.47169811320754718
aI123
a(lp800
I1
aI2
aI3
aI4
aI5
aI6
aI7
aI8
aI9
aI10
aI11
aI12
aI13
aI14
aI15
aI16
aI17
aI18
aI19
aI20
aI21
aI22
aI23
aI27
aI28
aaa(lp801
I25
aL24L
aI1
aF0.39210128495842783
aF0.51020408163265307
aI123
a(lp802
I1
aI2
aI3
aI4
aI5
aI6
aI7
aI8
aI9
aI10
aI11
aI12
aI13
aI14
aI15
aI16
aI17
aI18
aI19
aI20
aI21
aI22
aI23
aI24
aI25
aaa(lp803
I0
aL0L
aI0
aI1
aI1
aI1
a(lp804
aa(lp805
I9
aL1L
aI2
aF0.70927419354838717
aF0.90000000000000002
aI123
a(lp806
I2
aI10
aI25
aI27
aI28
aI29
aI37
aI41
aI42
aaa(lp807
I0
aL1L
aI0
aF0
aF0
aI123
a(lp808
aa(lp809
I18
aL35L
aI4
aF0.23820754716981132
aF0.33962264150943394
aI123
a(lp810
I4
aI6
aI17
aI27
aI28
aI32
aI33
aI34
aI35
aI36
aI38
aI40
aI41
aI42
aI45
aI48
aI52
aI53
aaa(lp811
I2
aL0L
aI4
aF0.91379310344827591
aF1
aI123
a(lp812
I4
aI32
aaa(lp813
I1
aL0L
aI9
aF0.70689655172413801
aF1
aI123
a(lp814
I9
aaa(lp815
I0
aL0L
aI0
aI1
aI1
aI1
a(lp816
aa(lp817
I0
aL0L
aI0
aI1
aI1
aI1
a(lp818
aa(lp819
I4
aL4L
aI25
aF0.29054054054054057
aF0.5
aI123
a(lp820
I25
aI31
aI34
aI36
aaa(lp821
I0
aL0L
aI0
aI1
aI1
aI1
a(lp822
aa(lp823
I0
aL0L
aI0
aI1
aI1
aI1
a(lp824
aa(lp825
I0
aL0L
aI0
aI1
aI1
aI1
a(lp826
aa(lp827
I0
aL0L
aI0
aI1
aI1
aI1
a(lp828
aa(lp829
I0
aL1L
aI0
aF0
aF0
aI123
a(lp830
aa(lp831
I26
aL5L
aI1
aF0.65431560592850924
aF0.83870967741935487
aI123
a(lp832
I1
aI4
aI5
aI6
aI7
aI8
aI9
aI10
aI11
aI12
aI14
aI16
aI17
aI18
aI19
aI20
aI21
aI22
aI23
aI24
aI25
aI26
aI28
aI29
aI30
aI31
aaa(lp833
I24
aL6L
aI1
aF0.65797101449275364
aF0.80000000000000004
aI123
a(lp834
I1
aI2
aI3
aI4
aI5
aI6
aI7
aI8
aI9
aI10
aI11
aI12
aI13
aI14
aI15
aI16
aI17
aI18
aI19
aI20
aI21
aI22
aI25
aI28
aaa(lp835
I0
aL0L
aI0
aI1
aI1
aI1
a(lp836
aa(lp837
I0
aL0L
aI0
aI1
aI1
aI1
a(lp838
aa(lp839
I1
aL0L
aI25
aF0.69374999999999998
aF1
aI123
a(lp840
I25
aaa(lp841
I0
aL0L
aI0
aI1
aI1
aI1
a(lp842
aa(lp843
I0
aL0L
aI0
aI1
aI1
aI1
a(lp844
aa(lp845
I0
aL0L
aI0
aI1
aI1
aI1
a(lp846
aa(lp847
I0
aL0L
aI0
aI1
aI1
aI1
a(lp848
aa(lp849
I0
aL0L
aI0
aI1
aI1
aI1
a(lp850
aa(lp851
I1
aL0L
aI22
aF0.70945945945945943
aF1
aI123
a(lp852
I22
aaa(lp853
I1
aL0L
aI2
aF0.97887323943661975
aF1
aI123
a(lp854
I2
aaa(lp855
I1
aL0L
aI1
aF0.99342105263157887
aF1
aI123
a(lp856
I1
aaa(lp857
I1
aL0L
aI1
aF0.99295774647887325
aF1
aI123
a(lp858
I1
aaa(lp859
I2
aL1L
aI1
aF0.60416666666666663
aF0.66666666666666663
aI123
a(lp860
I1
aI6
aaa(lp861
I1
aL0L
aI6
aF0.88297872340425532
aF1
aI123
a(lp862
I6
aaa(lp863
I1
aL1L
aI4
aF0.47635135135135137
aF0.5
aI123
a(lp864
I4
aaa(lp865
I0
aL1L
aI0
aF0
aF0
aI123
a(lp866
aa(lp867
I0
aL0L
aI0
aI1
aI1
aI1
a(lp868
aa(lp869
I0
aL0L
aI0
aI1
aI1
aI1
a(lp870
aa(lp871
I0
aL0L
aI0
aI1
aI1
aI1
a(lp872
aa(lp873
I0
aL0L
aI0
aI1
aI1
aI1
a(lp874
aa(lp875
I0
aL0L
aI0
aI1
aI1
aI1
a(lp876
aa(lp877
I0
aL0L
aI0
aI1
aI1
aI1
a(lp878
aa(lp879
I0
aL0L
aI0
aI1
aI1
aI1
a(lp880
aa(lp881
I0
aL0L
aI0
aI1
aI1
aI1
a(lp882
aa(lp883
I0
aL0L
aI0
aI1
aI1
aI1
a(lp884
aa(lp885
I1
aL0L
aI1
aF0.98571428571428565
aF1
aI123
a(lp886
I1
aaa(lp887
I0
aL0L
aI0
aI1
aI1
aI1
a(lp888
aa(lp889
I0
aL1L
aI0
aF0
aF0
aI123
a(lp890
aa(lp891
I0
aL0L
aI0
aI1
aI1
aI1
a(lp892
aa(lp893
I0
aL0L
aI0
aI1
aI1
aI1
a(lp894
aa(lp895
I50
aL24L
aI2
aF0.5245107176141659
aF0.67567567567567566
aI123
a(lp896
I2
aI3
aI4
aI5
aI6
aI7
aI11
aI13
aI14
aI15
aI16
aI17
aI18
aI19
aI20
aI21
aI22
aI25
aI26
aI27
aI28
aI29
aI30
aI31
aI32
aI33
aI34
aI35
aI36
aI37
aI39
aI40
aI42
aI43
aI45
aI46
aI47
aI48
aI49
aI50
aI51
aI52
aI54
aI55
aI56
aI57
aI58
aI63
aI64
aI72
aaa(lp897
I38
aL36L
aI1
aF0.38166544923301676
aF0.51351351351351349
aI123
a(lp898
I1
aI2
aI3
aI4
aI5
aI6
aI7
aI8
aI9
aI10
aI11
aI12
aI13
aI14
aI15
aI16
aI17
aI18
aI19
aI20
aI21
aI22
aI23
aI24
aI25
aI26
aI27
aI28
aI29
aI30
aI31
aI32
aI33
aI34
aI35
aI36
aI37
aI38
aaa(lp899
I35
aL39L
aI1
aF0.3611212563915267
aF0.47297297297297297
aI123
a(lp900
I1
aI2
aI3
aI4
aI5
aI6
aI7
aI8
aI9
aI10
aI11
aI12
aI13
aI14
aI15
aI16
aI17
aI18
aI19
aI20
aI21
aI22
aI23
aI24
aI25
aI26
aI27
aI28
aI29
aI30
aI31
aI32
aI33
aI34
aI35
aaa(lp901
I37
aL37L
aI1
aF0.375
aF0.5
aI123
a(lp902
I1
aI2
aI3
aI4
aI5
aI6
aI7
aI8
aI9
aI10
aI11
aI12
aI13
aI14
aI15
aI16
aI17
aI18
aI19
aI20
aI21
aI22
aI23
aI24
aI25
aI26
aI27
aI28
aI29
aI30
aI31
aI32
aI33
aI34
aI35
aI36
aI37
aaa(lp903
I0
aL0L
aI0
aI1
aI1
aI1
a(lp904
aa(lp905
I0
aL0L
aI0
aI1
aI1
aI1
a(lp906
aa(lp907
I1
aL1L
aI33
aF0.28618421052631576
aF0.5
aI123
a(lp908
I33
aaa(lp909
I2
aL6L
aI26
aF0.14473684210526316
aF0.25
aI123
a(lp910
I26
aI39
aaa(lp911
I0
aL0L
aI0
aI1
aI1
aI1
a(lp912
aa(lp913
I0
aL0L
aI0
aI1
aI1
aI1
a(lp914
aa(lp915
I0
aL0L
aI0
aI1
aI1
aI1
a(lp916
aa(lp917
I1
aL0L
aI31
aF0.58783783783783794
aF1
aI123
a(lp918
I31
aaa(lp919
I0
aL0L
aI0
aI1
aI1
aI1
a(lp920
aa(lp921
I0
aL0L
aI0
aI1
aI1
aI1
a(lp922
aa(lp923
I0
aL0L
aI0
aI1
aI1
aI1
a(lp924
aa(lp925
I40
aL32L
aI1
aF0.39518518518518525
aF0.55555555555555558
aI123
a(lp926
I1
aI2
aI4
aI5
aI6
aI7
aI8
aI9
aI10
aI11
aI12
aI13
aI15
aI16
aI17
aI18
aI19
aI20
aI21
aI22
aI23
aI24
aI25
aI26
aI27
aI28
aI29
aI30
aI31
aI32
aI33
aI34
aI35
aI36
aI37
aI38
aI39
aI40
aI41
aI42
aaa(lp927
I11
aL4L
aI1
aF0.52105263157894732
aF0.73333333333333328
aI123
a(lp928
I1
aI2
aI3
aI4
aI5
aI6
aI7
aI8
aI9
aI10
aI11
aaa(lp929
I17
aL17L
aI1
aF0.36351909184726527
aF0.5
aI123
a(lp930
I1
aI2
aI3
aI4
aI7
aI13
aI14
aI15
aI17
aI18
aI20
aI22
aI23
aI26
aI28
aI29
aI31
aaa(lp931
I39
aL33L
aI1
aF0.40268640350877188
aF0.54166666666666663
aI123
a(lp932
I1
aI2
aI3
aI4
aI5
aI6
aI7
aI8
aI9
aI10
aI11
aI12
aI13
aI14
aI15
aI16
aI17
aI18
aI19
aI20
aI21
aI22
aI23
aI24
aI25
aI26
aI27
aI28
aI29
aI30
aI31
aI32
aI33
aI34
aI35
aI36
aI37
aI38
aI39
aaa(lp933
I40
aL32L
aI1
aF0.40917397660818716
aF0.55555555555555558
aI123
a(lp934
I1
aI2
aI3
aI4
aI5
aI6
aI7
aI8
aI9
aI10
aI11
aI12
aI13
aI14
aI15
aI16
aI17
aI18
aI19
aI20
aI21
aI22
aI23
aI24
aI25
aI26
aI27
aI28
aI29
aI30
aI31
aI32
aI33
aI34
aI35
aI36
aI37
aI38
aI39
aI41
aaa(lp935
I42
aL30L
aI1
aF0.42196637426900585
aF0.58333333333333337
aI123
a(lp936
I1
aI2
aI3
aI4
aI5
aI6
aI7
aI8
aI9
aI10
aI11
aI12
aI13
aI14
aI15
aI16
aI17
aI18
aI19
aI20
aI21
aI22
aI23
aI24
aI25
aI26
aI27
aI28
aI29
aI30
aI31
aI32
aI33
aI34
aI35
aI36
aI37
aI38
aI39
aI40
aI41
aI43
aaa(lp937
I0
aL4L
aI0
aF0
aF0
aI123
a(lp938
aa(lp939
I0
aL0L
aI0
aI1
aI1
aI1
a(lp940
aa(lp941
I0
aL0L
aI0
aI1
aI1
aI1
a(lp942
aa(lp943
I0
aL0L
aI0
aI1
aI1
aI1
a(lp944
aa(lp945
I1
aL0L
aI15
aF0.80666666666666675
aF1
aI123
a(lp946
I15
aaa(lp947
I0
aL1L
aI0
aF0
aF0
aI123
a(lp948
aa(lp949
I0
aL1L
aI0
aF0
aF0
aI123
a(lp950
aa(lp951
I0
aL1L
aI0
aF0
aF0
aI123
a(lp952
aa(lp953
I0
aL0L
aI0
aI1
aI1
aI1
a(lp954
aa(lp955
I0
aL0L
aI0
aI1
aI1
aI1
a(lp956
aa(lp957
I1
aL1L
aI28
aF0.32371794871794868
aF0.5
aI123
a(lp958
I28
aaa(lp959
I0
aL1L
aI0
aF0
aF0
aI123
a(lp960
aa(lp961
I0
aL0L
aI0
aI1
aI1
aI1
a(lp962
aa(lp963
I0
aL0L
aI0
aI1
aI1
aI1
a(lp964
aa(lp965
I0
aL0L
aI0
aI1
aI1
aI1
a(lp966
aa(lp967
I0
aL0L
aI0
aI1
aI1
aI1
a(lp968
aa(lp969
I0
aL0L
aI0
aI1
aI1
aI1
a(lp970
aa(lp971
I0
aL0L
aI0
aI1
aI1
aI1
a(lp972
aa(lp973
I0
aL0L
aI0
aI1
aI1
aI1
a(lp974
aa(lp975
I45
aL27L
aI4
aF0.40816885964912281
aF0.625
aI123
a(lp976
I4
aI5
aI6
aI7
aI8
aI9
aI11
aI12
aI13
aI14
aI15
aI16
aI17
aI18
aI19
aI20
aI21
aI22
aI23
aI24
aI25
aI26
aI27
aI28
aI29
aI30
aI31
aI32
aI33
aI34
aI35
aI36
aI37
aI38
aI39
aI40
aI41
aI42
aI43
aI44
aI45
aI46
aI47
aI48
aI49
aaa(lp977
I47
aL25L
aI1
aF0.44234283625730997
aF0.65277777777777779
aI123
a(lp978
I1
aI2
aI3
aI4
aI5
aI6
aI7
aI8
aI9
aI10
aI11
aI12
aI13
aI14
aI15
aI16
aI17
aI18
aI19
aI20
aI21
aI22
aI23
aI24
aI26
aI28
aI29
aI30
aI31
aI32
aI33
aI34
aI35
aI36
aI37
aI38
aI39
aI40
aI41
aI42
aI43
aI44
aI45
aI46
aI47
aI49
aI50
aaa(lp979
I0
aL0L
aI0
aI1
aI1
aI1
a(lp980
aa(lp981
I0
aL0L
aI0
aI1
aI1
aI1
a(lp982
aa(lp983
I0
aL0L
aI0
aI1
aI1
aI1
a(lp984
aa(lp985
I0
aL0L
aI0
aI1
aI1
aI1
a(lp986
aa(lp987
I0
aL0L
aI0
aI1
aI1
aI1
a(lp988
aa(lp989
I33
aL24L
aI8
aF0.38044184535412612
aF0.57894736842105265
aI123
a(lp990
I8
aI9
aI10
aI13
aI14
aI15
aI16
aI17
aI18
aI19
aI20
aI21
aI22
aI23
aI24
aI25
aI26
aI27
aI28
aI29
aI33
aI34
aI35
aI38
aI40
aI42
aI43
aI44
aI46
aI47
aI48
aI49
aI50
aaa(lp991
I0
aL0L
aI0
aI1
aI1
aI1
a(lp992
aa(lp993
I0
aL0L
aI0
aI1
aI1
aI1
a(lp994
aa(lp995
I0
aL0L
aI0
aI1
aI1
aI1
a(lp996
aa(lp997
I0
aL0L
aI0
aI1
aI1
aI1
a(lp998
aa(lp999
I0
aL0L
aI0
aI1
aI1
aI1
a(lp1000
aa(lp1001
I0
aL0L
aI0
aI1
aI1
aI1
a(lp1002
aa(lp1003
I1
aL0L
aI7
aF0.91333333333333333
aF1
aI123
a(lp1004
I7
aaa(lp1005
I1
aL1L
aI6
aF0.46381578947368418
aF0.5
aI123
a(lp1006
I6
aaa(lp1007
I1
aL0L
aI5
aF0.9375
aF1
aI123
a(lp1008
I5
aaa(lp1009
I1
aL0L
aI2
aF0.98076923076923073
aF1
aI123
a(lp1010
I2
aaa(lp1011
I2
aL0L
aI5
aF0.7857142857142857
aF1
aI123
a(lp1012
I5
aI29
aaa(lp1013
I1
aL0L
aI4
aF0.95270270270270274
aF1
aI123
a(lp1014
I4
aaa(lp1015
I1
aL0L
aI8
aF0.90506329113924056
aF1
aI123
a(lp1016
I8
aaa(lp1017
I0
aL2L
aI0
aF0
aF0
aI123
a(lp1018
aa(lp1019
I0
aL1L
aI0
aF0
aF0
aI123
a(lp1020
aa(lp1021
I0
aL2L
aI0
aF0
aF0
aI123
a(lp1022
aa(lp1023
I0
aL0L
aI0
aI1
aI1
aI1
a(lp1024
aa(lp1025
I0
aL0L
aI0
aI1
aI1
aI1
a(lp1026
aa(lp1027
I21
aL19L
aI5
aF0.35198863636363642
aF0.52500000000000002
aI123
a(lp1028
I5
aI6
aI7
aI8
aI9
aI10
aI11
aI12
aI13
aI14
aI15
aI16
aI17
aI18
aI19
aI20
aI21
aI22
aI23
aI24
aI25
aaa(lp1029
I24
aL9L
aI4
aF0.58054226475279114
aF0.72727272727272729
aI123
a(lp1030
I4
aI5
aI6
aI7
aI8
aI9
aI10
aI11
aI12
aI13
aI14
aI15
aI16
aI17
aI18
aI19
aI21
aI22
aI23
aI24
aI25
aI26
aI27
aI28
aaa(lp1031
I30
aL3L
aI1
aF0.71491228070175428
aF0.90909090909090906
aI123
a(lp1032
I1
aI2
aI3
aI4
aI5
aI6
aI7
aI8
aI9
aI10
aI11
aI12
aI13
aI14
aI15
aI16
aI17
aI18
aI19
aI20
aI24
aI25
aI26
aI28
aI29
aI30
aI31
aI32
aI33
aI34
aaa(lp1033
I30
aL3L
aI1
aF0.71030303030303032
aF0.90909090909090906
aI123
a(lp1034
I1
aI2
aI3
aI4
aI5
aI6
aI7
aI8
aI9
aI10
aI11
aI12
aI13
aI14
aI15
aI16
aI20
aI21
aI22
aI23
aI24
aI25
aI26
aI27
aI28
aI29
aI30
aI31
aI32
aI33
aaa(lp1035
I0
aL0L
aI0
aI1
aI1
aI1
a(lp1036
aa(lp1037
I0
aL1L
aI0
aF0
aF0
aI123
a(lp1038
aa(lp1039
I0
aL1L
aI0
aF0
aF0
aI123
a(lp1040
aa(lp1041
I4
aL3L
aI5
aF0.46082949308755761
aF0.5714285714285714
aI123
a(lp1042
I5
aI6
aI7
aI8
aaa(lp1043
I0
aL2L
aI0
aF0
aF0
aI123
a(lp1044
aa(lp1045
I0
aL1L
aI0
aF0
aF0
aI123
a(lp1046
aa(lp1047
I0
aL1L
aI0
aF0
aF0
aI123
a(lp1048
aa(lp1049
I0
aL1L
aI0
aF0
aF0
aI123
a(lp1050
aa(lp1051
I0
aL1L
aI0
aF0
aF0
aI123
a(lp1052
aa(lp1053
I4
aL2L
aI37
aF0.33766233766233766
aF0.66666666666666663
aI123
a(lp1054
I37
aI38
aI39
aI40
aaa(lp1055
I17
aL26L
aI2
aF0.26458588331293353
aF0.39534883720930231
aI123
a(lp1056
I2
aI3
aI4
aI5
aI18
aI19
aI20
aI21
aI22
aI23
aI24
aI25
aI26
aI27
aI29
aI30
aI31
aaa(lp1057
I27
aL21L
aI4
aF0.43319444444444438
aF0.5625
aI123
a(lp1058
I4
aI5
aI6
aI7
aI8
aI9
aI10
aI11
aI12
aI13
aI14
aI15
aI16
aI18
aI19
aI20
aI21
aI22
aI23
aI24
aI25
aI26
aI27
aI28
aI29
aI30
aI37
aaa(lp1059
I30
aL18L
aI1
aF0.49444444444444446
aF0.625
aI123
a(lp1060
I1
aI2
aI3
aI4
aI5
aI6
aI7
aI8
aI9
aI10
aI11
aI12
aI13
aI14
aI15
aI16
aI17
aI18
aI19
aI20
aI21
aI22
aI23
aI24
aI25
aI26
aI32
aI33
aI34
aI35
aaa(lp1061
I29
aL19L
aI1
aF0.45847039473684204
aF0.60416666666666663
aI123
a(lp1062
I1
aI2
aI3
aI4
aI5
aI6
aI7
aI8
aI9
aI10
aI11
aI12
aI13
aI14
aI15
aI16
aI17
aI18
aI19
aI20
aI21
aI33
aI37
aI38
aI39
aI40
aI41
aI43
aI44
aaa(lp1063
I35
aL17L
aI1
aF0.52614915572232646
aF0.67307692307692313
aI123
a(lp1064
I1
aI2
aI3
aI4
aI5
aI6
aI7
aI8
aI9
aI10
aI11
aI12
aI13
aI14
aI15
aI16
aI17
aI18
aI19
aI20
aI21
aI22
aI23
aI24
aI25
aI26
aI27
aI28
aI29
aI30
aI31
aI32
aI33
aI41
aI42
aaa(lp1065
I24
aL27L
aI1
aF0.38782785841609374
aF0.47058823529411764
aI123
a(lp1066
I1
aI2
aI3
aI4
aI5
aI6
aI7
aI8
aI9
aI10
aI11
aI12
aI13
aI14
aI15
aI16
aI17
aI18
aI19
aI20
aI24
aI30
aI36
aI37
aaa(lp1067
I22
aL27L
aI1
aF0.26585769442912299
aF0.44897959183673469
aI123
a(lp1068
I1
aI21
aI22
aI23
aI24
aI25
aI26
aI27
aI28
aI29
aI30
aI31
aI32
aI34
aI36
aI37
aI39
aI40
aI41
aI42
aI43
aI44
aaa(lp1069
I16
aL29L
aI1
aF0.22769726247987118
aF0.35555555555555557
aI123
a(lp1070
I1
aI8
aI13
aI17
aI18
aI23
aI28
aI29
aI30
aI31
aI32
aI33
aI34
aI35
aI36
aI37
aaa(lp1071
I2
aL0L
aI1
aF0.85714285714285721
aF1
aI123
a(lp1072
I1
aI8
aaa(lp1073
I12
aL5L
aI29
aF0.37377450980392163
aF0.70588235294117652
aI123
a(lp1074
I29
aI42
aI43
aI44
aI45
aI46
aI47
aI48
aI49
aI50
aI51
aI54
aaa(lp1075
I1
aL1L
aI34
aF0.28525641025641024
aF0.5
aI123
a(lp1076
I34
aaa(lp1077
I0
aL1L
aI0
aF0
aF0
aI123
a(lp1078
aa(lp1079
I0
aL2L
aI0
aF0
aF0
aI123
a(lp1080
aa(lp1081
I0
aL3L
aI0
aF0
aF0
aI123
a(lp1082
aa(lp1083
I2
aL1L
aI29
aF0.40243902439024387
aF0.66666666666666663
aI123
a(lp1084
I29
aI37
aaa(lp1085
I3
aL0L
aI2
aF0.88194444444444453
aF1
aI123
a(lp1086
I2
aI3
aI5
aaa(lp1087
I6
aL9L
aI29
aF0.22063492063492066
aF0.40000000000000002
aI123
a(lp1088
I29
aI30
aI41
aI42
aI43
aI44
aaa(lp1089
I0
aL1L
aI0
aF0
aF0
aI123
a(lp1090
aa(lp1091
I0
aL2L
aI0
aF0
aF0
aI123
a(lp1092
aa(lp1093
I0
aL1L
aI0
aF0
aF0
aI123
a(lp1094
aa(lp1095
I0
aL1L
aI0
aF0
aF0
aI123
a(lp1096
aa(lp1097
I2
aL1L
aI9
aF0.4472573839662447
aF0.66666666666666663
aI123
a(lp1098
I9
aI44
aaa(lp1099
I1
aL0L
aI7
aF0.78333333333333333
aF1
aI123
a(lp1100
I7
aaa(lp1101
I1
aL1L
aI33
aF0.29166666666666663
aF0.5
aI123
a(lp1102
I33
aaa(lp1103
I0
aL2L
aI0
aF0
aF0
aI123
a(lp1104
aa(lp1105
I0
aL1L
aI0
aF0
aF0
aI123
a(lp1106
aa(lp1107
I0
aL3L
aI0
aF0
aF0
aI123
a(lp1108
aa(lp1109
I0
aL1L
aI0
aF0
aF0
aI123
a(lp1110
aa(lp1111
I0
aL0L
aI0
aI1
aI1
aI1
a(lp1112
aa(lp1113
I0
aL0L
aI0
aI1
aI1
aI1
a(lp1114
aa(lp1115
I0
aL1L
aI0
aF0
aF0
aI123
a(lp1116
aa(lp1117
I0
aL2L
aI0
aF0
aF0
aI123
a(lp1118
aa(lp1119
I0
aL1L
aI0
aF0
aF0
aI123
a(lp1120
aa(lp1121
I0
aL1L
aI0
aF0
aF0
aI123
a(lp1122
aa(lp1123
I0
aL2L
aI0
aF0
aF0
aI123
a(lp1124
aa(lp1125
I0
aL0L
aI0
aI1
aI1
aI1
a(lp1126
aa(lp1127
I2
aL0L
aI3
aF0.75757575757575757
aF1
aI123
a(lp1128
I3
aI14
aaa(lp1129
I42
aL15L
aI2
aF0.51911830859199271
aF0.73684210526315785
aI123
a(lp1130
I2
aI3
aI4
aI5
aI6
aI7
aI8
aI9
aI10
aI11
aI12
aI13
aI14
aI15
aI16
aI17
aI18
aI19
aI20
aI21
aI22
aI23
aI24
aI25
aI26
aI27
aI28
aI30
aI33
aI34
aI35
aI36
aI37
aI38
aI39
aI40
aI41
aI42
aI43
aI44
aI45
aI47
aaa(lp1131
I7
aL26L
aI22
aF0.10742035742035742
aF0.21212121212121213
aI123
a(lp1132
I22
aI36
aI37
aI43
aI44
aI45
aI46
aaa(lp1133
I0
aL2L
aI0
aF0
aF0
aI123
a(lp1134
aa(lp1135
I0
aL1L
aI0
aF0
aF0
aI123
a(lp1136
aa(lp1137
I0
aL2L
aI0
aF0
aF0
aI123
a(lp1138
aa(lp1139
I0
aL1L
aI0
aF0
aF0
aI123
a(lp1140
aa(lp1141
I1
aL0L
aI11
aF0.68181818181818188
aF1
aI123
a(lp1142
I11
aaa(lp1143
I0
aL3L
aI0
aF0
aF0
aI123
a(lp1144
aa(lp1145
I0
aL1L
aI0
aF0
aF0
aI123
a(lp1146
aa(lp1147
I0
aL1L
aI0
aF0
aF0
aI123
a(lp1148
aa(lp1149
I0
aL0L
aI0
aI1
aI1
aI1
a(lp1150
aa(lp1151
I0
aL1L
aI0
aF0
aF0
aI123
a(lp1152
aa(lp1153
I0
aL0L
aI0
aI1
aI1
aI1
a(lp1154
aa(lp1155
I1
aL0L
aI14
aF0.578125
aF1
aI123
a(lp1156
I14
aaa(lp1157
I0
aL1L
aI0
aF0
aF0
aI123
a(lp1158
aa(lp1159
I0
aL2L
aI0
aF0
aF0
aI123
a(lp1160
aa(lp1161
I2
aL13L
aI23
aF0.07521367521367521
aF0.13333333333333333
aI123
a(lp1162
I23
aI46
aaa(lp1163
I12
aL3L
aI24
aF0.44700854700854703
aF0.80000000000000004
aI123
a(lp1164
I24
aI26
aI29
aI32
aI34
aI35
aI36
aI37
aI40
aI41
aI42
aI43
aaa(lp1165
I39
aL33L
aI3
aF0.38302669552669549
aF0.54166666666666663
aI123
a(lp1166
I3
aI4
aI5
aI6
aI7
aI9
aI10
aI11
aI12
aI13
aI14
aI15
aI16
aI17
aI18
aI19
aI20
aI21
aI22
aI23
aI24
aI25
aI26
aI27
aI28
aI29
aI30
aI31
aI32
aI33
aI34
aI35
aI36
aI38
aI39
aI40
aI41
aI42
aI44
aaa(lp1167
I45
aL26L
aI1
aF0.44639084507042259
aF0.63380281690140849
aI123
a(lp1168
I1
aI2
aI3
aI4
aI5
aI6
aI7
aI8
aI9
aI10
aI11
aI12
aI13
aI14
aI15
aI16
aI17
aI18
aI19
aI20
aI21
aI22
aI23
aI24
aI25
aI26
aI29
aI30
aI31
aI32
aI33
aI35
aI36
aI37
aI38
aI39
aI40
aI41
aI42
aI43
aI44
aI45
aI46
aI47
aI48
aaa(lp1169
I35
aL33L
aI24
aF0.33187441643323989
aF0.51470588235294112
aI123
a(lp1170
I24
aI26
aI27
aI28
aI29
aI30
aI31
aI33
aI34
aI35
aI36
aI37
aI38
aI39
aI40
aI41
aI42
aI43
aI44
aI45
aI47
aI50
aI51
aI52
aI57
aI58
aI59
aI60
aI61
aI62
aI63
aI64
aI65
aI66
aI67
aaa(lp1171
I63
aL59L
aI1
aF0.39780885031608276
aF0.51639344262295084
aI123
a(lp1172
I1
aI2
aI3
aI4
aI5
aI6
aI7
aI8
aI11
aI12
aI13
aI14
aI15
aI16
aI17
aI18
aI19
aI20
aI21
aI22
aI23
aI24
aI25
aI26
aI27
aI28
aI29
aI30
aI31
aI32
aI33
aI35
aI37
aI38
aI39
aI40
aI41
aI43
aI44
aI45
aI46
aI47
aI48
aI49
aI50
aI51
aI52
aI53
aI54
aI55
aI56
aI57
aI58
aI59
aI60
aI61
aI62
aI64
aI65
aI66
aI75
aI76
aI77
aaa(lp1173
I69
aL11L
aI1
aF0.48902616279069772
aF0.86250000000000004
aI123
a(lp1174
I1
aI2
aI3
aI4
aI5
aI6
aI7
aI8
aI9
aI10
aI11
aI12
aI13
aI14
aI15
aI16
aI17
aI18
aI19
aI20
aI21
aI22
aI23
aI24
aI25
aI26
aI27
aI28
aI29
aI32
aI34
aI35
aI36
aI37
aI40
aI41
aI42
aI43
aI44
aI45
aI46
aI47
aI48
aI49
aI50
aI51
aI52
aI53
aI54
aI55
aI56
aI57
aI58
aI59
aI60
aI61
aI62
aI63
aI64
aI65
aI66
aI67
aI68
aI69
aI70
aI71
aI72
aI73
aI74
aaa(lp1175
I151
aL150L
aI1
aF0.37774086378737537
aF0.50166112956810627
aI123
a(lp1176
I1
aI2
aI3
aI4
aI5
aI6
aI7
aI8
aI9
aI10
aI11
aI12
aI13
aI14
aI15
aI16
aI17
aI18
aI19
aI20
aI21
aI22
aI23
aI24
aI25
aI26
aI27
aI28
aI29
aI30
aI31
aI32
aI33
aI36
aI37
aI38
aI39
aI40
aI41
aI42
aI43
aI44
aI45
aI46
aI47
aI48
aI49
aI50
aI51
aI52
aI53
aI54
aI57
aI58
aI59
aI60
aI61
aI62
aI63
aI68
aI69
aI70
aI71
aI72
aI73
aI74
aI75
aI76
aI77
aI78
aI79
aI80
aI81
aI82
aI83
aI84
aI85
aI86
aI87
aI88
aI89
aI90
aI91
aI97
aI99
aI100
aI101
aI102
aI103
aI104
aI108
aI111
aI112
aI113
aI114
aI115
aI116
aI117
aI118
aI119
aI120
aI121
aI122
aI123
aI124
aI125
aI127
aI128
aI131
aI134
aI135
aI136
aI137
aI138
aI139
aI141
aI142
aI143
aI144
aI145
aI147
aI148
aI149
aI150
aI151
aI152
aI153
aI154
aI155
aI156
aI157
aI158
aI159
aI160
aI161
aI162
aI163
aI164
aI165
aI166
aI167
aI168
aI169
aI173
aI174
aI177
aI179
aI180
aI183
aI184
aI185
aaa(lp1177
I58
aL52L
aI6
aF0.37288135593220334
aF0.52727272727272723
aI123
a(lp1178
I6
aI7
aI8
aI9
aI10
aI11
aI12
aI13
aI14
aI15
aI16
aI17
aI18
aI19
aI20
aI21
aI22
aI23
aI24
aI25
aI26
aI27
aI28
aI29
aI30
aI31
aI33
aI34
aI35
aI36
aI37
aI38
aI39
aI40
aI41
aI42
aI43
aI44
aI45
aI46
aI47
aI48
aI49
aI50
aI51
aI52
aI53
aI54
aI55
aI56
aI57
aI58
aI59
aI60
aI61
aI62
aI63
aI64
aaa(lp1179
I8
aL8L
aI8
aF0.34926470588235292
aF0.5
aI123
a(lp1180
I8
aI12
aI13
aI15
aI17
aI18
aI21
aI23
aaa(lp1181
I17
aL28L
aI29
aF0.20099715099715099
aF0.37777777777777777
aI123
a(lp1182
I29
aI30
aI31
aI32
aI33
aI34
aI35
aI36
aI37
aI38
aI39
aI40
aI41
aI42
aI43
aI44
aI45
aaa(lp1183
I5
aL24L
aI8
aF0.10257159555815314
aF0.17241379310344829
aI123
a(lp1184
I8
aI27
aI28
aI29
aI30
aaa(lp1185
I8
aL18L
aI8
aF0.18421052631578949
aF0.30769230769230771
aI123
a(lp1186
I8
aI13
aI15
aI16
aI17
aI18
aI19
aI20
aaa(lp1187
I37
aL32L
aI6
aF0.3624117428465255
aF0.53623188405797106
aI123
a(lp1188
I6
aI8
aI9
aI10
aI11
aI12
aI13
aI14
aI15
aI16
aI17
aI18
aI19
aI20
aI22
aI23
aI24
aI25
aI26
aI27
aI28
aI29
aI30
aI31
aI32
aI33
aI34
aI35
aI36
aI37
aI39
aI40
aI41
aI42
aI43
aI44
aI45
aaa(lp1189
I12
aL9L
aI1
aF0.34523809523809523
aF0.5714285714285714
aI123
a(lp1190
I1
aI23
aI24
aI25
aI26
aI27
aI28
aI35
aI36
aI40
aI41
aI42
aaa(lp1191
I73
aL64L
aI1
aF0.40770677533473648
aF0.53284671532846717
aI123
a(lp1192
I1
aI2
aI3
aI4
aI5
aI6
aI7
aI8
aI11
aI12
aI13
aI14
aI15
aI16
aI17
aI18
aI19
aI20
aI21
aI22
aI23
aI24
aI25
aI26
aI27
aI28
aI29
aI30
aI31
aI32
aI33
aI34
aI35
aI36
aI37
aI38
aI39
aI40
aI41
aI42
aI43
aI44
aI45
aI46
aI47
aI48
aI49
aI50
aI51
aI52
aI53
aI54
aI55
aI56
aI57
aI58
aI59
aI60
aI61
aI62
aI63
aI64
aI65
aI66
aI67
aI68
aI69
aI70
aI71
aI72
aI73
aI74
aI75
aaa(lp1193
I124
aL68L
aI1
aF0.49149197722567289
aF0.64583333333333337
aI123
a(lp1194
I1
aI2
aI4
aI7
aI8
aI14
aI15
aI17
aI20
aI21
aI22
aI23
aI24
aI25
aI26
aI27
aI28
aI29
aI30
aI31
aI32
aI33
aI34
aI35
aI36
aI37
aI38
aI39
aI40
aI41
aI43
aI44
aI45
aI46
aI47
aI48
aI49
aI50
aI51
aI52
aI53
aI54
aI55
aI57
aI58
aI59
aI62
aI63
aI64
aI67
aI68
aI69
aI70
aI71
aI72
aI73
aI74
aI75
aI76
aI77
aI78
aI79
aI80
aI81
aI82
aI83
aI84
aI85
aI86
aI87
aI88
aI89
aI90
aI91
aI92
aI93
aI94
aI95
aI96
aI97
aI98
aI99
aI100
aI101
aI102
aI103
aI104
aI106
aI107
aI108
aI109
aI110
aI111
aI112
aI113
aI114
aI115
aI116
aI117
aI118
aI119
aI120
aI121
aI122
aI123
aI124
aI125
aI126
aI127
aI128
aI129
aI130
aI131
aI132
aI133
aI134
aI135
aI140
aI141
aI142
aI143
aI144
aI145
aI146
aaa(lp1195
I0
aL1L
aI0
aF0
aF0
aI123
a(lp1196
aa(lp1197
I61
aL31L
aI1
aF0.50581315354980738
aF0.66304347826086951
aI123
a(lp1198
I1
aI2
aI6
aI7
aI8
aI9
aI10
aI11
aI12
aI13
aI14
aI16
aI18
aI19
aI20
aI22
aI23
aI24
aI25
aI26
aI27
aI29
aI30
aI32
aI33
aI34
aI35
aI36
aI37
aI38
aI39
aI40
aI41
aI42
aI43
aI44
aI45
aI46
aI47
aI48
aI49
aI50
aI51
aI52
aI53
aI54
aI55
aI56
aI58
aI60
aI61
aI62
aI63
aI64
aI65
aI66
aI67
aI68
aI69
aI70
aI71
aaa(lp1199
I1
aL15L
aI29
aF0.037411971830985914
aF0.0625
aI123
a(lp1200
I29
aaa(lp1201
I3
aL8L
aI19
aF0.14040404040404036
aF0.27272727272727271
aI123
a(lp1202
I19
aI22
aI26
aaa(lp1203
I90
aL84L
aI1
aF0.36776993029589627
aF0.51724137931034486
aI123
a(lp1204
I1
aI12
aI13
aI14
aI20
aI21
aI22
aI23
aI24
aI25
aI26
aI27
aI28
aI29
aI30
aI32
aI33
aI34
aI35
aI36
aI37
aI38
aI39
aI40
aI41
aI42
aI43
aI44
aI45
aI46
aI50
aI52
aI53
aI54
aI58
aI59
aI60
aI61
aI62
aI63
aI64
aI65
aI66
aI67
aI68
aI69
aI75
aI76
aI78
aI79
aI80
aI81
aI82
aI83
aI84
aI85
aI86
aI93
aI94
aI95
aI97
aI98
aI99
aI100
aI101
aI102
aI103
aI104
aI105
aI106
aI107
aI108
aI109
aI110
aI112
aI118
aI119
aI120
aI121
aI122
aI123
aI128
aI129
aI131
aI132
aI133
aI134
aI135
aI136
aI137
aaa(lp1205
I142
aL145L
aI9
aF0.35678537490384177
aF0.49477351916376305
aI123
a(lp1206
I9
aI10
aI11
aI16
aI17
aI18
aI19
aI20
aI21
aI22
aI23
aI24
aI26
aI27
aI28
aI29
aI30
aI32
aI33
aI34
aI35
aI36
aI37
aI38
aI39
aI40
aI41
aI42
aI43
aI44
aI45
aI46
aI48
aI49
aI50
aI51
aI52
aI53
aI54
aI56
aI57
aI58
aI59
aI60
aI61
aI62
aI63
aI64
aI65
aI66
aI67
aI68
aI69
aI70
aI71
aI73
aI84
aI85
aI91
aI92
aI93
aI94
aI95
aI96
aI97
aI98
aI99
aI100
aI101
aI102
aI103
aI109
aI110
aI111
aI112
aI114
aI115
aI116
aI117
aI118
aI121
aI126
aI128
aI129
aI130
aI131
aI132
aI133
aI134
aI135
aI136
aI137
aI138
aI145
aI147
aI148
aI149
aI150
aI151
aI152
aI153
aI154
aI155
aI156
aI158
aI160
aI161
aI162
aI163
aI164
aI166
aI167
aI173
aI174
aI175
aI183
aI184
aI185
aI186
aI187
aI188
aI189
aI190
aI191
aI192
aI193
aI194
aI195
aI196
aI197
aI198
aI199
aI200
aI201
aI202
aI203
aI204
aI205
aI206
aI207
aI208
aI209
aaa(lp1207
I138
aL143L
aI20
aF0.33221460328482288
aF0.49110320284697506
aI123
a(lp1208
I20
aI42
aI43
aI44
aI49
aI52
aI53
aI55
aI56
aI57
aI58
aI59
aI60
aI61
aI62
aI63
aI64
aI65
aI66
aI67
aI68
aI69
aI70
aI71
aI72
aI73
aI74
aI75
aI76
aI77
aI78
aI79
aI80
aI81
aI82
aI83
aI84
aI85
aI87
aI88
aI89
aI90
aI91
aI92
aI93
aI94
aI95
aI96
aI97
aI98
aI99
aI100
aI101
aI102
aI104
aI105
aI106
aI107
aI108
aI109
aI110
aI111
aI112
aI113
aI114
aI115
aI116
aI117
aI118
aI119
aI120
aI121
aI122
aI123
aI124
aI125
aI126
aI127
aI129
aI130
aI131
aI132
aI133
aI134
aI135
aI138
aI139
aI140
aI141
aI142
aI143
aI144
aI145
aI146
aI147
aI148
aI149
aI150
aI151
aI152
aI153
aI155
aI156
aI157
aI158
aI159
aI160
aI161
aI162
aI163
aI164
aI166
aI168
aI169
aI170
aI171
aI173
aI175
aI176
aI177
aI179
aI180
aI181
aI182
aI183
aI184
aI186
aI187
aI188
aI189
aI191
aI192
aI193
aI194
aI195
aI196
aI197
aI198
aaa(lp1209
I48
aL41L
aI7
aF0.39141290777832055
aF0.5393258426966292
aI123
a(lp1210
I7
aI11
aI17
aI19
aI22
aI23
aI24
aI25
aI26
aI27
aI28
aI29
aI30
aI31
aI32
aI33
aI34
aI35
aI36
aI37
aI38
aI50
aI51
aI54
aI55
aI56
aI73
aI74
aI75
aI76
aI77
aI78
aI79
aI82
aI84
aI85
aI86
aI87
aI88
aI89
aI90
aI92
aI94
aI96
aI102
aI103
aI104
aI105
aaa(lp1211
I2
aL3L
aI17
aF0.29230769230769232
aF0.40000000000000002
aI123
a(lp1212
I17
aI26
aaa(lp1213
I1
aL1L
aI32
aF0.29807692307692307
aF0.5
aI123
a(lp1214
I32
aaa(lp1215
I1
aL0L
aI8
aF0.67391304347826086
aF1
aI123
a(lp1216
I8
aaa(lp1217
I6
aL0L
aI20
aF0.65408805031446549
aF1
aI123
a(lp1218
I20
aI32
aI40
aI41
aI42
aI48
aaa(lp1219
I4
aL0L
aI7
aF0.86363636363636365
aF1
aI123
a(lp1220
I7
aI8
aI9
aI20
aaa(lp1221
I4
aL1L
aI5
aF0.72105263157894739
aF0.80000000000000004
aI123
a(lp1222
I5
aI6
aI7
aI14
aaa(lp1223
I2
aL1L
aI18
aF0.49999999999999994
aF0.66666666666666663
aI123
a(lp1224
I18
aI28
aaa(lp1225
I1
aL0L
aI9
aF0.89240506329113933
aF1
aI123
a(lp1226
I9
aaa(lp1227
I3
aL0L
aI3
aF0.87061403508771928
aF1
aI123
a(lp1228
I3
aI9
aI19
aaa(lp1229
I1
aL1L
aI10
aF0.439873417721519
aF0.5
aI123
a(lp1230
I10
aaa(lp1231
I5
aL4L
aI5
aF0.46432212028542308
aF0.55555555555555558
aI123
a(lp1232
I5
aI14
aI16
aI28
aI29
aaa(lp1233
I3
aL1L
aI7
aF0.56655844155844159
aF0.75
aI123
a(lp1234
I7
aI23
aI28
aaa(lp1235
I8
aL2L
aI4
aF0.569620253164557
aF0.80000000000000004
aI123
a(lp1236
I4
aI10
aI11
aI15
aI32
aI37
aI38
aI39
aaa(lp1237
I3
aL0L
aI7
aF0.86965811965811968
aF1
aI123
a(lp1238
I7
aI8
aI17
aaa(lp1239
I3
aL0L
aI1
aF0.95085470085470081
aF1
aI123
a(lp1240
I1
aI2
aI10
aaa(lp1241
I3
aL0L
aI2
aF0.95887445887445877
aF1
aI123
a(lp1242
I2
aI3
aI6
aaa(lp1243
I3
aL0L
aI3
aF0.95512820512820507
aF1
aI123
a(lp1244
I3
aI4
aI5
aaa(lp1245
I6
aL1L
aI3
aF0.62184873949579822
aF0.8571428571428571
aI123
a(lp1246
I3
aI4
aI10
aI13
aI14
aI15
aaa(lp1247
I2
aL0L
aI3
aF0.96153846153846156
aF1
aI123
a(lp1248
I3
aI4
aaa(lp1249
I2
aL0L
aI7
aF0.91025641025641024
aF1
aI123
a(lp1250
I7
aI8
aaa(lp1251
I2
aL0L
aI7
aF0.91025641025641024
aF1
aI123
a(lp1252
I7
aI8
aaa(lp1253
I19
aL1L
aI3
aF0.72993827160493829
aF0.94999999999999996
aI123
a(lp1254
I3
aI4
aI10
aI11
aI12
aI13
aI14
aI15
aI16
aI17
aI19
aI23
aI24
aI25
aI30
aI31
aI32
aI33
aI34
aaa(lp1255
I57
aL32L
aI1
aF0.48612791702679348
aF0.6404494382022472
aI123
a(lp1256
I1
aI2
aI3
aI4
aI5
aI6
aI9
aI10
aI11
aI12
aI13
aI14
aI15
aI16
aI17
aI18
aI19
aI20
aI21
aI22
aI23
aI24
aI25
aI26
aI27
aI28
aI29
aI30
aI31
aI32
aI33
aI34
aI35
aI36
aI37
aI38
aI39
aI40
aI41
aI42
aI45
aI46
aI47
aI48
aI49
aI50
aI51
aI52
aI53
aI54
aI56
aI57
aI61
aI62
aI64
aI65
aI66
aaa(lp1257
I1
aL2L
aI1
aF0.32222222222222224
aF0.33333333333333331
aI123
a(lp1258
I1
aaa(lp1259
I6
aL16L
aI1
aF0.20129870129870125
aF0.27272727272727271
aI123
a(lp1260
I1
aI9
aI11
aI18
aI20
aI21
aaa(lp1261
I0
aL6L
aI0
aF0
aF0
aI123
a(lp1262
aa(lp1263
I2
aL2L
aI37
aF0.26874999999999999
aF0.5
aI123
a(lp1264
I37
aI38
aaa(lp1265
I2
aL9L
aI8
aF0.15360501567398119
aF0.18181818181818182
aI123
a(lp1266
I8
aI20
aaa(lp1267
I2
aL1L
aI3
aF0.56118143459915604
aF0.66666666666666663
aI123
a(lp1268
I3
aI23
aaa(lp1269
I1
aL1L
aI3
aF0.48287671232876717
aF0.5
aI123
a(lp1270
I3
aaa(lp1271
I2
aL1L
aI7
aF0.61111111111111105
aF0.66666666666666663
aI123
a(lp1272
I7
aI8
aaa(lp1273
I6
aL1L
aI10
aF0.54621848739495782
aF0.8571428571428571
aI123
a(lp1274
I10
aI11
aI12
aI13
aI15
aI16
aaa(lp1275
I2
aL1L
aI10
aF0.58227848101265811
aF0.66666666666666663
aI123
a(lp1276
I10
aI11
aaa(lp1277
I2
aL1L
aI9
aF0.59071729957805896
aF0.66666666666666663
aI123
a(lp1278
I9
aI10
aaa(lp1279
I2
aL1L
aI8
aF0.59915611814345981
aF0.66666666666666663
aI123
a(lp1280
I8
aI9
aaa(lp1281
I2
aL2L
aI3
aF0.48076923076923078
aF0.5
aI123
a(lp1282
I3
aI4
aaa(lp1283
I2
aL1L
aI9
aF0.58666666666666667
aF0.66666666666666663
aI123
a(lp1284
I9
aI10
aaa(lp1285
I2
aL1L
aI15
aF0.54618473895582331
aF0.66666666666666663
aI123
a(lp1286
I15
aI16
aaa(lp1287
I4
aL3L
aI9
aF0.36974789915966383
aF0.5714285714285714
aI123
a(lp1288
I9
aI10
aI14
aI17
aaa(lp1289
I2
aL1L
aI5
aF0.62393162393162394
aF0.66666666666666663
aI123
a(lp1290
I5
aI6
aaa(lp1291
I3
aL4L
aI10
aF0.32960413080895007
aF0.42857142857142855
aI123
a(lp1292
I10
aI11
aI38
aaa(lp1293
I2
aL5L
aI12
aF0.2444061962134251
aF0.2857142857142857
aI123
a(lp1294
I12
aI13
aaa(lp1295
I2
aL1L
aI1
aF0.65822784810126578
aF0.66666666666666663
aI123
a(lp1296
I1
aI2
aaa(lp1297
I2
aL1L
aI4
aF0.62441314553990601
aF0.66666666666666663
aI123
a(lp1298
I4
aI6
aaa(lp1299
I2
aL3L
aI16
aF0.32967032967032966
aF0.40000000000000002
aI123
a(lp1300
I16
aI17
aaa(lp1301
I5
aL0L
aI2
aF0.83027522935779807
aF1
aI123
a(lp1302
I2
aI3
aI22
aI23
aI45
aaa(lp1303
I2
aL4L
aI6
aF0.30813953488372092
aF0.33333333333333331
aI123
a(lp1304
I6
aI8
aaa(lp1305
I2
aL0L
aI10
aF0.86075949367088611
aF1
aI123
a(lp1306
I10
aI13
aaa(lp1307
I2
aL7L
aI18
aF0.17602996254681647
aF0.22222222222222221
aI123
a(lp1308
I18
aI20
aaa(lp1309
I2
aL1L
aI22
aF0.47499999999999998
aF0.66666666666666663
aI123
a(lp1310
I22
aI25
aaa(lp1311
I1
aL2L
aI17
aF0.25694444444444442
aF0.33333333333333331
aI123
a(lp1312
I17
aaa(lp1313
I2
aL0L
aI31
aF0.62941176470588234
aF1
aI123
a(lp1314
I31
aI33
aaa(lp1315
I9
aL10L
aI15
aF0.24898785425101211
aF0.47368421052631576
aI123
a(lp1316
I15
aI16
aI17
aI18
aI19
aI20
aI21
aI22
aI23
aaa(lp1317
I1
aL2L
aI10
aF0.29374999999999996
aF0.33333333333333331
aI123
a(lp1318
I10
aaa(lp1319
I1
aL2L
aI1
aF0.33124999999999999
aF0.33333333333333331
aI123
a(lp1320
I1
aaa(lp1321
I1
aL1L
aI1
aF0.49691358024691357
aF0.5
aI123
a(lp1322
I1
aaa(lp1323
I0
aL2L
aI0
aF0
aF0
aI123
a(lp1324
aa(lp1325
I0
aL0L
aI0
aI1
aI1
aI1
a(lp1326
aa(lp1327
I0
aL0L
aI0
aI1
aI1
aI1
a(lp1328
aa(lp1329
I2
aL3L
aI6
aF0.28947368421052633
aF0.40000000000000002
aI123
a(lp1330
I6
aI16
aaa(lp1331
I0
aL0L
aI0
aI1
aI1
aI1
a(lp1332
aa(lp1333
I0
aL0L
aI0
aI1
aI1
aI1
a(lp1334
aa(lp1335
I0
aL0L
aI0
aI1
aI1
aI1
a(lp1336
aa(lp1337
I0
aL0L
aI0
aI1
aI1
aI1
a(lp1338
aa(lp1339
I0
aL0L
aI0
aI1
aI1
aI1
a(lp1340
aa(lp1341
I0
aL0L
aI0
aI1
aI1
aI1
a(lp1342
aa(lp1343
I2
aL7L
aI1
aF0.2070175438596491
aF0.22222222222222221
aI123
a(lp1344
I1
aI13
aaa(lp1345
I1
aL7L
aI15
aF0.10486111111111111
aF0.125
aI123
a(lp1346
I15
aaa(lp1347
I0
aL4L
aI0
aF0
aF0
aI123
a(lp1348
aa(lp1349
I4
aL1L
aI1
aF0.75
aF0.80000000000000004
aI123
a(lp1350
I1
aI3
aI4
aI16
aaa(lp1351
I0
aL4L
aI0
aF0
aF0
aI123
a(lp1352
aa(lp1353
I0
aL1L
aI0
aF0
aF0
aI123
a(lp1354
aa(lp1355
I0
aL1L
aI0
aF0
aF0
aI123
a(lp1356
aa(lp1357
I0
aL3L
aI0
aF0
aF0
aI123
a(lp1358
aa(lp1359
I0
aL1L
aI0
aF0
aF0
aI123
a(lp1360
aa(lp1361
I0
aL2L
aI0
aF0
aF0
aI123
a(lp1362
aa(lp1363
I4
aL4L
aI3
aF0.38920454545454547
aF0.5
aI123
a(lp1364
I3
aI20
aI21
aI36
aaa(lp1365
I4
aL2L
aI1
aF0.60897435897435892
aF0.66666666666666663
aI123
a(lp1366
I1
aI4
aI9
aI15
aaa(lp1367
I1
aL1L
aI3
aF0.48456790123456794
aF0.5
aI123
a(lp1368
I3
aaa(lp1369
I0
aL0L
aI0
aI1
aI1
aI1
a(lp1370
aa(lp1371
I0
aL1L
aI0
aF0
aF0
aI123
a(lp1372
aa(lp1373
I1
aL1L
aI1
aF0.49695121951219512
aF0.5
aI123
a(lp1374
I1
aaa(lp1375
I1
aL1L
aI1
aF0.49695121951219512
aF0.5
aI123
a(lp1376
I1
aaa(lp1377
I13
aL3L
aI1
aF0.5163871951219513
aF0.8125
aI123
a(lp1378
I1
aI18
aI19
aI20
aI21
aI24
aI25
aI39
aI42
aI45
aI46
aI47
aI48
aaa(lp1379
I14
aL1L
aI1
aF0.85267489711934163
aF0.93333333333333335
aI123
a(lp1380
I1
aI2
aI3
aI4
aI5
aI6
aI7
aI8
aI9
aI10
aI11
aI12
aI13
aI14
aaa(lp1381
I52
aL30L
aI1
aF0.43307555026769778
aF0.63414634146341464
aI123
a(lp1382
I1
aI2
aI3
aI4
aI5
aI6
aI7
aI8
aI9
aI10
aI11
aI12
aI13
aI14
aI15
aI16
aI17
aI18
aI19
aI20
aI21
aI22
aI23
aI24
aI25
aI26
aI27
aI28
aI29
aI30
aI31
aI32
aI33
aI34
aI35
aI36
aI37
aI38
aI39
aI40
aI41
aI42
aI43
aI44
aI45
aI46
aI47
aI48
aI49
aI50
aI51
aI52
aaa(lp1383
I0
aL2L
aI0
aF0
aF0
aI123
a(lp1384
aa(lp1385
I14
aL0L
aI1
aF0.875
aF1
aI123
a(lp1386
I1
aI2
aI3
aI4
aI5
aI6
aI7
aI8
aI9
aI10
aI11
aI12
aI13
aI14
aaa(lp1387
I0
aL1L
aI0
aF0
aF0
aI123
a(lp1388
aa(lp1389
I2
aL5L
aI76
aF0.15646258503401358
aF0.2857142857142857
aI123
a(lp1390
I76
aI77
aaa(lp1391
I0
aL2L
aI0
aF0
aF0
aI123
a(lp1392
aa(lp1393
I2
aL3L
aI1
aF0.28387096774193549
aF0.40000000000000002
aI123
a(lp1394
I1
aI54
aaa(lp1395
I0
aL0L
aI0
aI1
aI1
aI1
a(lp1396
aa(lp1397
I4
aL0L
aI1
aF0.71428571428571419
aF1
aI123
a(lp1398
I1
aI2
aI3
aI4
aaa(lp1399
I0
aL0L
aI0
aI1
aI1
aI1
a(lp1400
aa(lp1401
I22
aL12L
aI7
aF0.38127690100430423
aF0.6470588235294118
aI123
a(lp1402
I7
aI8
aI10
aI22
aI26
aI27
aI33
aI34
aI35
aI36
aI37
aI38
aI39
aI40
aI41
aI42
aI43
aI44
aI46
aI47
aI48
aI49
aaa(lp1403
I5
aL0L
aI2
aF0.72441860465116281
aF1
aI123
a(lp1404
I2
aI25
aI27
aI33
aI34
aaa(lp1405
I1
aL0L
aI30
aF0.68947368421052635
aF1
aI123
a(lp1406
I30
aaa(lp1407
I3
aL1L
aI1
aF0.6919642857142857
aF0.75
aI123
a(lp1408
I1
aI2
aI18
aaa(lp1409
I1
aL8L
aI51
aF0.048765432098765431
aF0.1111111111111111
aI123
a(lp1410
I51
aaa(lp1411
I0
aL8L
aI0
aF0
aF0
aI123
a(lp1412
aa(lp1413
I0
aL0L
aI0
aI1
aI1
aI1
a(lp1414
aa(lp1415
I0
aL2L
aI0
aF0
aF0
aI123
a(lp1416
aa(lp1417
I1
aL6L
aI27
aF0.10079365079365078
aF0.14285714285714285
aI123
a(lp1418
I27
aaa(lp1419
I0
aL1L
aI0
aF0
aF0
aI123
a(lp1420
aa(lp1421
I0
aL0L
aI0
aI1
aI1
aI1
a(lp1422
aa(lp1423
I0
aL1L
aI0
aF0
aF0
aI123
a(lp1424
aa(lp1425
I1
aL5L
aI54
aF0.06176470588235293
aF0.16666666666666666
aI123
a(lp1426
I54
aaa(lp1427
I1
aL2L
aI2
aF0.32723577235772355
aF0.33333333333333331
aI123
a(lp1428
I2
aaa(lp1429
I0
aL0L
aI0
aI1
aI1
aI1
a(lp1430
aa(lp1431
I0
aL2L
aI0
aF0
aF0
aI123
a(lp1432
aa(lp1433
I0
aL4L
aI0
aF0
aF0
aI123
a(lp1434
aasS'env'
p1435
S'paintcontrol'
p1436
sS'action_size'
p1437
I1
sS'hidden_size'
p1438
S'12'
p1439
sS'ttf'
p1440
(lp1441
I0
aI0
aI0
aI0
aI0
aI0
aI0
aI0
aI0
aI0
aI9
aI33
aI0
aI0
aI0
aI0
aI24
aI1
aI0
aI0
aI0
aI0
aI0
aI0
aI0
aI0
aI0
aI0
aI0
aI24
aI0
aI0
aI12
aI1
aI1
aI1
aI0
aI2
aI0
aI4
aI4
aI9
aI0
aI0
aI25
aI0
aI0
aI0
aI0
aI0
aI1
aI1
aI0
aI0
aI25
aI0
aI0
aI0
aI0
aI0
aI22
aI2
aI1
aI1
aI1
aI6
aI4
aI0
aI0
aI0
aI0
aI0
aI0
aI0
aI0
aI0
aI0
aI1
aI0
aI0
aI0
aI0
aI2
aI1
aI1
aI1
aI0
aI0
aI33
aI26
aI0
aI0
aI0
aI31
aI0
aI0
aI0
aI1
aI1
aI1
aI1
aI1
aI1
aI0
aI0
aI0
aI0
aI15
aI0
aI0
aI0
aI0
aI0
aI28
aI0
aI0
aI0
aI0
aI0
aI0
aI0
aI0
aI4
aI1
aI0
aI0
aI0
aI0
aI0
aI8
aI0
aI0
aI0
aI0
aI0
aI0
aI7
aI6
aI5
aI2
aI5
aI4
aI8
aI0
aI0
aI0
aI0
aI0
aI5
aI4
aI1
aI1
aI0
aI0
aI0
aI5
aI0
aI0
aI0
aI0
aI0
aI37
aI2
aI4
aI1
aI1
aI1
aI1
aI1
aI1
aI1
aI29
aI34
aI0
aI0
aI0
aI29
aI2
aI29
aI0
aI0
aI0
aI0
aI9
aI7
aI33
aI0
aI0
aI0
aI0
aI0
aI0
aI0
aI0
aI0
aI0
aI0
aI0
aI3
aI2
aI22
aI0
aI0
aI0
aI0
aI11
aI0
aI0
aI0
aI0
aI0
aI0
aI14
aI0
aI0
aI23
aI24
aI3
aI1
aI24
aI1
aI1
aI1
aI6
aI8
aI29
aI8
aI8
aI6
aI1
aI1
aI1
aI0
aI1
aI29
aI19
aI1
aI9
aI20
aI7
aI17
aI32
aI8
aI20
aI7
aI5
aI18
aI9
aI3
aI10
aI5
aI7
aI4
aI7
aI1
aI2
aI3
aI3
aI3
aI7
aI7
aI3
aI1
aI1
aI1
aI0
aI37
aI8
aI3
aI3
aI7
aI10
aI10
aI9
aI8
aI3
aI9
aI15
aI9
aI5
aI10
aI12
aI1
aI4
aI16
aI2
aI6
aI10
aI18
aI22
aI17
aI31
aI15
aI10
aI1
aI1
aI0
aI0
aI0
aI6
aI0
aI0
aI0
aI0
aI0
aI0
aI1
aI15
aI0
aI1
aI0
aI0
aI0
aI0
aI0
aI0
aI3
aI1
aI3
aI0
aI0
aI1
aI1
aI1
aI1
aI1
aI0
aI1
aI0
aI76
aI0
aI1
aI0
aI1
aI0
aI7
aI2
aI30
aI1
aI51
aI0
aI0
aI0
aI27
aI0
aI0
aI0
aI54
aI2
aI0
aI0
aI0
asS'napfd'
p1442
(lp1443
I1
aI1
aF0
aF0
aI1
aI1
aF0
aF0
aI1
aF0
aF0.54449152542372881
aF0.18950617283950616
aF0
aF0
aI1
aI1
aF0.095959595959595939
aF0.98484848484848486
aI1
aI1
aI1
aI1
aF0
aF0
aI1
aI1
aI1
aI1
aI1
aF0.41250000000000003
aF0
aF0
aF0.53185840707964605
aF0.34918300653594769
aF0.37477175897748022
aF0.39210128495842783
aI1
aF0.70927419354838717
aF0
aF0.23820754716981132
aF0.91379310344827591
aF0.70689655172413801
aI1
aI1
aF0.29054054054054057
aI1
aI1
aI1
aI1
aF0
aF0.65431560592850924
aF0.65797101449275364
aI1
aI1
aF0.69374999999999998
aI1
aI1
aI1
aI1
aI1
aF0.70945945945945943
aF0.97887323943661975
aF0.99342105263157887
aF0.99295774647887325
aF0.60416666666666663
aF0.88297872340425532
aF0.47635135135135137
aF0
aI1
aI1
aI1
aI1
aI1
aI1
aI1
aI1
aI1
aF0.98571428571428565
aI1
aF0
aI1
aI1
aF0.5245107176141659
aF0.38166544923301676
aF0.3611212563915267
aF0.375
aI1
aI1
aF0.28618421052631576
aF0.14473684210526316
aI1
aI1
aI1
aF0.58783783783783794
aI1
aI1
aI1
aF0.39518518518518525
aF0.52105263157894732
aF0.36351909184726527
aF0.40268640350877188
aF0.40917397660818716
aF0.42196637426900585
aF0
aI1
aI1
aI1
aF0.80666666666666675
aF0
aF0
aF0
aI1
aI1
aF0.32371794871794868
aF0
aI1
aI1
aI1
aI1
aI1
aI1
aI1
aF0.40816885964912281
aF0.44234283625730997
aI1
aI1
aI1
aI1
aI1
aF0.38044184535412612
aI1
aI1
aI1
aI1
aI1
aI1
aF0.91333333333333333
aF0.46381578947368418
aF0.9375
aF0.98076923076923073
aF0.7857142857142857
aF0.95270270270270274
aF0.90506329113924056
aF0
aF0
aF0
aI1
aI1
aF0.35198863636363642
aF0.58054226475279114
aF0.71491228070175428
aF0.71030303030303032
aI1
aF0
aF0
aF0.46082949308755761
aF0
aF0
aF0
aF0
aF0
aF0.33766233766233766
aF0.26458588331293353
aF0.43319444444444438
aF0.49444444444444446
aF0.45847039473684204
aF0.52614915572232646
aF0.38782785841609374
aF0.26585769442912299
aF0.22769726247987118
aF0.85714285714285721
aF0.37377450980392163
aF0.28525641025641024
aF0
aF0
aF0
aF0.40243902439024387
aF0.88194444444444453
aF0.22063492063492066
aF0
aF0
aF0
aF0
aF0.4472573839662447
aF0.78333333333333333
aF0.29166666666666663
aF0
aF0
aF0
aF0
aI1
aI1
aF0
aF0
aF0
aF0
aF0
aI1
aF0.75757575757575757
aF0.51911830859199271
aF0.10742035742035742
aF0
aF0
aF0
aF0
aF0.68181818181818188
aF0
aF0
aF0
aI1
aF0
aI1
aF0.578125
aF0
aF0
aF0.07521367521367521
aF0.44700854700854703
aF0.38302669552669549
aF0.44639084507042259
aF0.33187441643323989
aF0.39780885031608276
aF0.48902616279069772
aF0.37774086378737537
aF0.37288135593220334
aF0.34926470588235292
aF0.20099715099715099
aF0.10257159555815314
aF0.18421052631578949
aF0.3624117428465255
aF0.34523809523809523
aF0.40770677533473648
aF0.49149197722567289
aF0
aF0.50581315354980738
aF0.037411971830985914
aF0.14040404040404036
aF0.36776993029589627
aF0.35678537490384177
aF0.33221460328482288
aF0.39141290777832055
aF0.29230769230769232
aF0.29807692307692307
aF0.67391304347826086
aF0.65408805031446549
aF0.86363636363636365
aF0.72105263157894739
aF0.49999999999999994
aF0.89240506329113933
aF0.87061403508771928
aF0.439873417721519
aF0.46432212028542308
aF0.56655844155844159
aF0.569620253164557
aF0.86965811965811968
aF0.95085470085470081
aF0.95887445887445877
aF0.95512820512820507
aF0.62184873949579822
aF0.96153846153846156
aF0.91025641025641024
aF0.91025641025641024
aF0.72993827160493829
aF0.48612791702679348
aF0.32222222222222224
aF0.20129870129870125
aF0
aF0.26874999999999999
aF0.15360501567398119
aF0.56118143459915604
aF0.48287671232876717
aF0.61111111111111105
aF0.54621848739495782
aF0.58227848101265811
aF0.59071729957805896
aF0.59915611814345981
aF0.48076923076923078
aF0.58666666666666667
aF0.54618473895582331
aF0.36974789915966383
aF0.62393162393162394
aF0.32960413080895007
aF0.2444061962134251
aF0.65822784810126578
aF0.62441314553990601
aF0.32967032967032966
aF0.83027522935779807
aF0.30813953488372092
aF0.86075949367088611
aF0.17602996254681647
aF0.47499999999999998
aF0.25694444444444442
aF0.62941176470588234
aF0.24898785425101211
aF0.29374999999999996
aF0.33124999999999999
aF0.49691358024691357
aF0
aI1
aI1
aF0.28947368421052633
aI1
aI1
aI1
aI1
aI1
aI1
aF0.2070175438596491
aF0.10486111111111111
aF0
aF0.75
aF0
aF0
aF0
aF0
aF0
aF0
aF0.38920454545454547
aF0.60897435897435892
aF0.48456790123456794
aI1
aF0
aF0.49695121951219512
aF0.49695121951219512
aF0.5163871951219513
aF0.85267489711934163
aF0.43307555026769778
aF0
aF0.875
aF0
aF0.15646258503401358
aF0
aF0.28387096774193549
aI1
aF0.71428571428571419
aI1
aF0.38127690100430423
aF0.72441860465116281
aF0.68947368421052635
aF0.6919642857142857
aF0.048765432098765431
aF0
aI1
aF0
aF0.10079365079365078
aF0
aI1
aF0
aF0.06176470588235293
aF0.32723577235772355
aI1
aF0
aF0
asS'rewardfun'
p1444
S'tcfail'
p1445
s.