(dp1
S'avg_precision'
p2
(lp3
I1
aI1
aI123
aI123
aI1
aI1
aI123
aI123
aI1
aI123
aI123
aI123
aI123
aI123
aI1
aI1
aI123
aI123
aI1
aI1
aI1
aI1
aI123
aI123
aI1
aI1
aI1
aI1
aI1
aI123
aI123
aI123
aI123
aI123
aI123
aI123
aI1
aI123
aI123
aI123
aI123
aI123
aI1
aI1
aI123
aI1
aI1
aI1
aI1
aI123
aI123
aI123
aI1
aI1
aI123
aI1
aI1
aI1
aI1
aI1
aI123
aI123
aI123
aI123
aI123
aI123
aI123
aI123
aI1
aI1
aI1
aI1
aI1
aI1
aI1
aI1
aI1
aI123
aI1
aI123
aI1
aI1
aI123
aI123
aI123
aI123
aI1
aI1
aI123
aI123
aI1
aI1
aI1
aI123
aI1
aI1
aI1
aI123
aI123
aI123
aI123
aI123
aI123
aI123
aI1
aI1
aI1
aI123
aI123
aI123
aI123
aI1
aI1
aI123
aI123
aI1
aI1
aI1
aI1
aI1
aI1
aI1
aI123
aI123
aI1
aI1
aI1
aI1
aI1
aI123
aI1
aI1
aI1
aI1
aI1
aI1
aI123
aI123
aI123
aI123
aI123
aI123
aI123
aI123
aI123
aI123
aI1
aI1
aI123
aI123
aI123
aI123
aI1
aI123
aI123
aI123
aI123
aI123
aI123
aI123
aI123
aI123
aI123
aI123
aI123
aI123
aI123
aI123
aI123
aI123
aI123
aI123
aI123
aI123
aI123
aI123
aI123
aI123
aI123
aI123
aI123
aI123
aI123
aI123
aI123
aI123
aI123
aI123
aI123
aI123
aI1
aI1
aI123
aI123
aI123
aI123
aI123
aI1
aI123
aI123
aI123
aI123
aI123
aI123
aI123
aI123
aI123
aI123
aI123
aI1
aI123
aI1
aI123
aI123
aI123
aI123
aI123
aI123
aI123
aI123
aI123
aI123
aI123
aI123
aI123
aI123
aI123
aI123
aI123
aI123
aI123
aI123
aI123
aI123
aI123
aI123
aI123
aI123
aI123
aI123
aI123
aI123
aI123
aI123
aI123
aI123
aI123
aI123
aI123
aI123
aI123
aI123
aI123
aI123
aI123
aI123
aI123
aI123
aI123
aI123
aI123
aI123
aI123
aI123
aI123
aI123
aI123
aI123
aI123
aI123
aI123
aI123
aI123
aI123
aI123
aI123
aI123
aI123
aI123
aI123
aI123
aI123
aI123
aI123
aI123
aI123
aI123
aI123
aI123
aI123
aI123
aI123
aI123
aI123
aI123
aI123
aI123
aI1
aI1
aI123
aI1
aI1
aI1
aI1
aI1
aI1
aI123
aI123
aI123
aI123
aI123
aI123
aI123
aI123
aI123
aI123
aI123
aI123
aI123
aI1
aI123
aI123
aI123
aI123
aI123
aI123
aI123
aI123
aI123
aI123
aI123
aI123
aI1
aI123
aI1
aI123
aI123
aI123
aI123
aI123
aI123
aI1
aI123
aI123
aI123
aI1
aI123
aI123
aI123
aI1
aI123
aI123
asS'rewards'
p4
(lp5
cnumpy.core.multiarray
scalar
p6
(cnumpy
dtype
p7
(S'f8'
I0
I1
tRp8
(I3
S'<'
NNNI-1
I-1
I0
tbS'\x00\x00\x00\x00\x00\x00\x00\x00'
tRp9
ag6
(g8
S'\x00\x00\x00\x00\x00\x00\x00\x00'
tRp10
ag6
(g8
S'\x00\x00\x00\x00\x00\x00\x00\x00'
tRp11
ag6
(g8
S'\x00\x00\x00\x00\x00\x00\x00\x00'
tRp12
ag6
(g8
S'\x00\x00\x00\x00\x00\x00\x00\x00'
tRp13
ag6
(g8
S'\x00\x00\x00\x00\x00\x00\x00\x00'
tRp14
ag6
(g8
S'\x00\x00\x00\x00\x00\x00\x00\x00'
tRp15
ag6
(g8
S'\x00\x00\x00\x00\x00\x00\x00\x00'
tRp16
ag6
(g8
S'\x00\x00\x00\x00\x00\x00\x00\x00'
tRp17
ag6
(g8
S'\x00\x00\x00\x00\x00\x00\x00\x00'
tRp18
ag6
(g8
S'\x94\xba/\x8f\xad\x08\xaa?'
tRp19
ag6
(g8
S'\x17l\xc1\x16l\xc1\x86?'
tRp20
ag6
(g8
S'\x00\x00\x00\x00\x00\x00\x00\x00'
tRp21
ag6
(g8
S'\x00\x00\x00\x00\x00\x00\x00\x00'
tRp22
ag6
(g8
S'\x00\x00\x00\x00\x00\x00\x00\x00'
tRp23
ag6
(g8
S'\x00\x00\x00\x00\x00\x00\x00\x00'
tRp24
ag6
(g8
S'\x08\x1f|\xf0\xc1\x07\x9f?'
tRp25
ag6
(g8
S'\x08\x1f|\xf0\xc1\x07\x9f?'
tRp26
ag6
(g8
S'\x00\x00\x00\x00\x00\x00\x00\x00'
tRp27
ag6
(g8
S'\x00\x00\x00\x00\x00\x00\x00\x00'
tRp28
ag6
(g8
S'\x00\x00\x00\x00\x00\x00\x00\x00'
tRp29
ag6
(g8
S'\x00\x00\x00\x00\x00\x00\x00\x00'
tRp30
ag6
(g8
S'\x00\x00\x00\x00\x00\x00\x00\x00'
tRp31
ag6
(g8
S'\x00\x00\x00\x00\x00\x00\x00\x00'
tRp32
ag6
(g8
S'\x00\x00\x00\x00\x00\x00\x00\x00'
tRp33
ag6
(g8
S'\x00\x00\x00\x00\x00\x00\x00\x00'
tRp34
ag6
(g8
S'\x00\x00\x00\x00\x00\x00\x00\x00'
tRp35
ag6
(g8
S'\x00\x00\x00\x00\x00\x00\x00\x00'
tRp36
ag6
(g8
S'\x00\x00\x00\x00\x00\x00\x00\x00'
tRp37
ag6
(g8
S'\x9a\x99\x99\x99\x99\x99\x99?'
tRp38
ag6
(g8
S'\x14\x14\x14\x14\x14\x14\x94?'
tRp39
ag6
(g8
S'\x9a\x99\x99\x99\x99\x99y?'
tRp40
ag6
(g8
S'4\xf9\xb2A\x93/\x9b?'
tRp41
ag6
(g8
S'\xcd\xcc\xcc\xcc\xcc\xcc\xdc?'
tRp42
ag6
(g8
S'\x00\x00\x00\x00\x00\x00\xe0?'
tRp43
ag6
(g8
S'\xf7\x12\xdaKh/\xe1?'
tRp44
ag6
(g8
S'\x00\x00\x00\x00\x00\x00\x00\x00'
tRp45
ag6
(g8
S'\xc6\x18c\x8c1\xc6\x98?'
tRp46
ag6
(g8
S'\x00\x00\x00\x00\x00\x00\x00\x00'
tRp47
ag6
(g8
S'\xdb\xb6m\xdb\xb6m\xd7?'
tRp48
ag6
(g8
S'\x87\x1f\xd5%f-\x84?'
tRp49
ag6
(g8
S'\x96{\x1aa\xb9\xa7\xa1?'
tRp50
ag6
(g8
S'\x00\x00\x00\x00\x00\x00\x00\x00'
tRp51
ag6
(g8
S'\x00\x00\x00\x00\x00\x00\x00\x00'
tRp52
ag6
(g8
S'\x1cL\x91\xcf\xba\xc1\xb4?'
tRp53
ag6
(g8
S'\x00\x00\x00\x00\x00\x00\x00\x00'
tRp54
ag6
(g8
S'\x00\x00\x00\x00\x00\x00\x00\x00'
tRp55
ag6
(g8
S'\x00\x00\x00\x00\x00\x00\x00\x00'
tRp56
ag6
(g8
S'\x00\x00\x00\x00\x00\x00\x00\x00'
tRp57
ag6
(g8
S'\x02\xa9\xe4\xbc,\xe2\x83?'
tRp58
ag6
(g8
S'v\x83)\xf2Y7\xb8?'
tRp59
ag6
(g8
S'\xbd\xe9Moz\xd3\xdb?'
tRp60
ag6
(g8
S'\x00\x00\x00\x00\x00\x00\x00\x00'
tRp61
ag6
(g8
S'\x00\x00\x00\x00\x00\x00\x00\x00'
tRp62
ag6
(g8
S'\x00\x00\x00\x00\x00\x00\x00\x00'
tRp63
ag6
(g8
S'\x00\x00\x00\x00\x00\x00\x00\x00'
tRp64
ag6
(g8
S'\x00\x00\x00\x00\x00\x00\x00\x00'
tRp65
ag6
(g8
S'\x00\x00\x00\x00\x00\x00\x00\x00'
tRp66
ag6
(g8
S'\x00\x00\x00\x00\x00\x00\x00\x00'
tRp67
ag6
(g8
S'\x00\x00\x00\x00\x00\x00\x00\x00'
tRp68
ag6
(g8
S'\x00\x00\x00\x00\x00\x00\x00\x00'
tRp69
ag6
(g8
S'\x0b\x9b\x03\x89V\xd8\x8c?'
tRp70
ag6
(g8
S'(\xaf\xa1\xbc\x86\xf2\x8a?'
tRp71
ag6
(g8
S'\x0b\x9b\x03\x89V\xd8\x8c?'
tRp72
ag6
(g8
S'\x00\x00\x00\x00\x00\x00\xb8?'
tRp73
ag6
(g8
S'W\x10\x93+\x88\xc9\x95?'
tRp74
ag6
(g8
S'\x00\x00\x00\x00\x00\x00\x00\x00'
tRp75
ag6
(g8
S'O\x1b\xe8\xb4\x81N\x8b?'
tRp76
ag6
(g8
S'\x00\x00\x00\x00\x00\x00\x00\x00'
tRp77
ag6
(g8
S'\x00\x00\x00\x00\x00\x00\x00\x00'
tRp78
ag6
(g8
S'\x00\x00\x00\x00\x00\x00\x00\x00'
tRp79
ag6
(g8
S'\x00\x00\x00\x00\x00\x00\x00\x00'
tRp80
ag6
(g8
S'\x00\x00\x00\x00\x00\x00\x00\x00'
tRp81
ag6
(g8
S'\x00\x00\x00\x00\x00\x00\x00\x00'
tRp82
ag6
(g8
S'\x00\x00\x00\x00\x00\x00\x00\x00'
tRp83
ag6
(g8
S'\x00\x00\x00\x00\x00\x00\x00\x00'
tRp84
ag6
(g8
S'\x00\x00\x00\x00\x00\x00\x00\x00'
tRp85
ag6
(g8
S'\x1d\xd4A\x1d\xd4A\x9d?'
tRp86
ag6
(g8
S'\x00\x00\x00\x00\x00\x00\x00\x00'
tRp87
ag6
(g8
S'\xd0\xba\xc1\x14\xf9\xac\x8b?'
tRp88
ag6
(g8
S'\x00\x00\x00\x00\x00\x00\x00\x00'
tRp89
ag6
(g8
S'\x00\x00\x00\x00\x00\x00\x00\x00'
tRp90
ag6
(g8
S'\xf9\xc3\x01\x8f?\x1c\xe0?'
tRp91
ag6
(g8
S'\xc9g\xdd`\x8a|\xe6?'
tRp92
ag6
(g8
S'\xc9g\xdd`\x8a|\xe6?'
tRp93
ag6
(g8
S'\xc9g\xdd`\x8a|\xe6?'
tRp94
ag6
(g8
S'\x00\x00\x00\x00\x00\x00\x00\x00'
tRp95
ag6
(g8
S'\x00\x00\x00\x00\x00\x00\x00\x00'
tRp96
ag6
(g8
S'(\xaf\xa1\xbc\x86\xf2\x8a?'
tRp97
ag6
(g8
S'Cy\r\xe55\x94\xb7?'
tRp98
ag6
(g8
S'\x00\x00\x00\x00\x00\x00\x00\x00'
tRp99
ag6
(g8
S'\x00\x00\x00\x00\x00\x00\x00\x00'
tRp100
ag6
(g8
S'\x00\x00\x00\x00\x00\x00\x00\x00'
tRp101
ag6
(g8
S'\xd0\xba\xc1\x14\xf9\xac\x8b?'
tRp102
ag6
(g8
S'\x00\x00\x00\x00\x00\x00\x00\x00'
tRp103
ag6
(g8
S'\x00\x00\x00\x00\x00\x00\x00\x00'
tRp104
ag6
(g8
S'\x00\x00\x00\x00\x00\x00\x00\x00'
tRp105
ag6
(g8
S'\xe8\xb4\x81N\x1b\xe8\xe4?'
tRp106
ag6
(g8
S'l(\xaf\xa1\xbc\x86\xe2?'
tRp107
ag6
(g8
S'Cy\r\xe55\x94\xd7?'
tRp108
ag6
(g8
S'(\xaf\xa1\xbc\x86\xf2\xe2?'
tRp109
ag6
(g8
S'\xaf\xa1\xbc\x86\xf2\x1a\xe2?'
tRp110
ag6
(g8
S'(\xaf\xa1\xbc\x86\xf2\xe2?'
tRp111
ag6
(g8
S'\x14\x14\x14\x14\x14\x14\x94?'
tRp112
ag6
(g8
S'\x00\x00\x00\x00\x00\x00\x00\x00'
tRp113
ag6
(g8
S'\x00\x00\x00\x00\x00\x00\x00\x00'
tRp114
ag6
(g8
S'\x00\x00\x00\x00\x00\x00\x00\x00'
tRp115
ag6
(g8
S'O\x1b\xe8\xb4\x81N\x8b?'
tRp116
ag6
(g8
S'(\xaf\xa1\xbc\x86\xf2\x8a?'
tRp117
ag6
(g8
S'(\xaf\xa1\xbc\x86\xf2\x8a?'
tRp118
ag6
(g8
S'\xbecj`\xef\x98\x8a?'
tRp119
ag6
(g8
S'\x00\x00\x00\x00\x00\x00\x00\x00'
tRp120
ag6
(g8
S'\x00\x00\x00\x00\x00\x00\x00\x00'
tRp121
ag6
(g8
S'\x1a\xa4A\x1a\xa4A\x9a?'
tRp122
ag6
(g8
S'\x00\x00\x00\x00\x00\x00\x00\x00'
tRp123
ag6
(g8
S'\x00\x00\x00\x00\x00\x00\x00\x00'
tRp124
ag6
(g8
S'\x00\x00\x00\x00\x00\x00\x00\x00'
tRp125
ag6
(g8
S'\x00\x00\x00\x00\x00\x00\x00\x00'
tRp126
ag6
(g8
S'\x00\x00\x00\x00\x00\x00\x00\x00'
tRp127
ag6
(g8
S'\x00\x00\x00\x00\x00\x00\x00\x00'
tRp128
ag6
(g8
S'\x00\x00\x00\x00\x00\x00\x00\x00'
tRp129
ag6
(g8
S'\x00\x00\x00\x00\x00\x00\x00\x00'
tRp130
ag6
(g8
S'\x94\xd7P^Cy\xe5?'
tRp131
ag6
(g8
S'\r\xe55\x94\xd7P\xe6?'
tRp132
ag6
(g8
S'\x00\x00\x00\x00\x00\x00\x00\x00'
tRp133
ag6
(g8
S'\x00\x00\x00\x00\x00\x00\x00\x00'
tRp134
ag6
(g8
S'\x00\x00\x00\x00\x00\x00\x00\x00'
tRp135
ag6
(g8
S'\x00\x00\x00\x00\x00\x00\x00\x00'
tRp136
ag6
(g8
S'\x00\x00\x00\x00\x00\x00\x00\x00'
tRp137
ag6
(g8
S'\xba5?,R\x06\xde?'
tRp138
ag6
(g8
S'\x00\x00\x00\x00\x00\x00\x00\x00'
tRp139
ag6
(g8
S'\x00\x00\x00\x00\x00\x00\x00\x00'
tRp140
ag6
(g8
S'\x00\x00\x00\x00\x00\x00\x00\x00'
tRp141
ag6
(g8
S'\x00\x00\x00\x00\x00\x00\x00\x00'
tRp142
ag6
(g8
S'\x00\x00\x00\x00\x00\x00\x00\x00'
tRp143
ag6
(g8
S'\x00\x00\x00\x00\x00\x00\x00\x00'
tRp144
ag6
(g8
S'\x00\x00\x00\x00\x00\x00\x00\x00'
tRp145
ag6
(g8
S'(\xaf\xa1\xbc\x86\xf2\x8a?'
tRp146
ag6
(g8
S'\x1c\xc7q\x1c\xc7q\x8c?'
tRp147
ag6
(g8
S'\x1a\xa4A\x1a\xa4A\x8a?'
tRp148
ag6
(g8
S'\xbecj`\xef\x98\x9a?'
tRp149
ag6
(g8
S'\xd0\xba\xc1\x14\xf9\xac\x8b?'
tRp150
ag6
(g8
S'\xd93\x10\x95\x8e\xec\x89?'
tRp151
ag6
(g8
S'(\xaf\xa1\xbc\x86\xf2\x8a?'
tRp152
ag6
(g8
S'\x1c\xc7q\x1c\xc7q\x8c?'
tRp153
ag6
(g8
S'(\xaf\xa1\xbc\x86\xf2\x9a?'
tRp154
ag6
(g8
S'\x00\x00\x00\x00\x00\x00\x00\x00'
tRp155
ag6
(g8
S'\x00\x00\x00\x00\x00\x00\x00\x00'
tRp156
ag6
(g8
S'\xe9\xa2\x8b.\xba\xe8\xe2?'
tRp157
ag6
(g8
S'Cy\r\xe55\x94\xd7?'
tRp158
ag6
(g8
S'\xa2\xbc\x86\xf2\x1a\xca\xdb?'
tRp159
ag6
(g8
S')\\\x8f\xc2\xf5(\xdc?'
tRp160
ag6
(g8
S'\x00\x00\x00\x00\x00\x00\x00\x00'
tRp161
ag6
(g8
S'\x1a\xa4A\x1a\xa4A\x8a?'
tRp162
ag6
(g8
S'\x9a\x99\x99\x99\x99\x99\x89?'
tRp163
ag6
(g8
S'\xe7\x9cs\xce9\xe7\xcc?'
tRp164
ag6
(g8
S'(\xaf\xa1\xbc\x86\xf2\x8a?'
tRp165
ag6
(g8
S'\x1a\xa4A\x1a\xa4A\x8a?'
tRp166
ag6
(g8
S'O\x1b\xe8\xb4\x81N\x8b?'
tRp167
ag6
(g8
S'(\xaf\xa1\xbc\x86\xf2\x8a?'
tRp168
ag6
(g8
S'O\x1b\xe8\xb4\x81N\x8b?'
tRp169
ag6
(g8
S'\xce\xcaO\x88\xb3\xf2\xb3?'
tRp170
ag6
(g8
S'\x04\xf7\x11\xdcGp\xdf?'
tRp171
ag6
(g8
S'\xbfX\xf2\x8b%\xbf\xd8?'
tRp172
ag6
(g8
S'\xa4p=\n\xd7\xa3\xe0?'
tRp173
ag6
(g8
S'y\r\xe55\x94\xd7\xe0?'
tRp174
ag6
(g8
S'dp>\x06\xe7c\xe0?'
tRp175
ag6
(g8
S'V~B\x9c\x95\x9f\xe0?'
tRp176
ag6
(g8
S'\xd6\r\xa6\xc8g\xdd\xe0?'
tRp177
ag6
(g8
S'\x13?\xa3\xc4\xcf(\xe1?'
tRp178
ag6
(g8
S'\x92$I\x92$I\xb2?'
tRp179
ag6
(g8
S'\xab\xaa\xaa\xaa\xaa\xaa\xc6?'
tRp180
ag6
(g8
S'\x1a\xa4A\x1a\xa4A\x9a?'
tRp181
ag6
(g8
S'\xbecj`\xef\x98\x8a?'
tRp182
ag6
(g8
S'\x1a\xa4A\x1a\xa4A\x8a?'
tRp183
ag6
(g8
S'\xd0\xba\xc1\x14\xf9\xac\x8b?'
tRp184
ag6
(g8
S'\xfa\x18\x9c\x8f\xc1\xf9\x98?'
tRp185
ag6
(g8
S'\x00\x00\x00\x00\x00\x00\xc0?'
tRp186
ag6
(g8
S'\x9e\xe7y\x9e\xe7y\xbe?'
tRp187
ag6
(g8
S'\x1a\xa4A\x1a\xa4A\x8a?'
tRp188
ag6
(g8
S'\xbecj`\xef\x98\x8a?'
tRp189
ag6
(g8
S'\x1a\xa4A\x1a\xa4A\x8a?'
tRp190
ag6
(g8
S'\xbecj`\xef\x98\x8a?'
tRp191
ag6
(g8
S'\xd93\x10\x95\x8e\xec\x99?'
tRp192
ag6
(g8
S'\x11\x11\x11\x11\x11\x11\xa1?'
tRp193
ag6
(g8
S'\x1a\xa4A\x1a\xa4A\x9a?'
tRp194
ag6
(g8
S'\x1a\xa4A\x1a\xa4A\x9a?'
tRp195
ag6
(g8
S'\xbecj`\xef\x98\x8a?'
tRp196
ag6
(g8
S'\x1a\xa4A\x1a\xa4A\x8a?'
tRp197
ag6
(g8
S'p\x1f\xc1}\x04\xf7\x91?'
tRp198
ag6
(g8
S'\x00\x00\x00\x00\x00\x00\x00\x00'
tRp199
ag6
(g8
S'\x00\x00\x00\x00\x00\x00\x00\x00'
tRp200
ag6
(g8
S'\x1a\xa4A\x1a\xa4A\x8a?'
tRp201
ag6
(g8
S'\x1a\xa4A\x1a\xa4A\x8a?'
tRp202
ag6
(g8
S'\xd93\x10\x95\x8e\xec\x89?'
tRp203
ag6
(g8
S'\x1a\xa4A\x1a\xa4A\x8a?'
tRp204
ag6
(g8
S'(\xaf\xa1\xbc\x86\xf2\x8a?'
tRp205
ag6
(g8
S'\x00\x00\x00\x00\x00\x00\x00\x00'
tRp206
ag6
(g8
S'\x08\x1f|\xf0\xc1\x07\x9f?'
tRp207
ag6
(g8
S'B\x1a\xa4A\x1a\xa4\xe1?'
tRp208
ag6
(g8
S'UUUUUU\xc5?'
tRp209
ag6
(g8
S'\xbecj`\xef\x98\x8a?'
tRp210
ag6
(g8
S'\xd93\x10\x95\x8e\xec\x89?'
tRp211
ag6
(g8
S'(\xaf\xa1\xbc\x86\xf2\x8a?'
tRp212
ag6
(g8
S'O\x1b\xe8\xb4\x81N\x8b?'
tRp213
ag6
(g8
S'\x08\x1f|\xf0\xc1\x07\x9f?'
tRp214
ag6
(g8
S'\xc1x+\xfb\x1cR\x83?'
tRp215
ag6
(g8
S'\xbecj`\xef\x98\x8a?'
tRp216
ag6
(g8
S'\x14\x14\x14\x14\x14\x14\x94?'
tRp217
ag6
(g8
S'\x00\x00\x00\x00\x00\x00\x00\x00'
tRp218
ag6
(g8
S'\xbecj`\xef\x98\x8a?'
tRp219
ag6
(g8
S'\x00\x00\x00\x00\x00\x00\x00\x00'
tRp220
ag6
(g8
S'\x00\x00\x00\x00\x00\x00\x00\x00'
tRp221
ag6
(g8
S'\x1a\xa4A\x1a\xa4A\x8a?'
tRp222
ag6
(g8
S'\x1a\xa4A\x1a\xa4A\x9a?'
tRp223
ag6
(g8
S'\xd2 \r\xd2 \r\xc2?'
tRp224
ag6
(g8
S'\xd9\x89\x9d\xd8\x89\x9d\xc8?'
tRp225
ag6
(g8
S'{\xc7\xd4\xc0\xde1\xe5?'
tRp226
ag6
(g8
S'\xcd\xcc\xcc\xcc\xcc\xcc\xe4?'
tRp227
ag6
(g8
S'UUUUUU\xd5?'
tRp228
ag6
(g8
S'ZZZZZZ\xda?'
tRp229
ag6
(g8
S'6eMYS\xd6\xe4?'
tRp230
ag6
(g8
S'\xb4\ro\xe2\x02\xd4\xde?'
tRp231
ag6
(g8
S'\x8b\xa0\xe1\xa4\xee\xcb\xe3?'
tRp232
ag6
(g8
S'\x92\x91\x91\x91\x91\x91\xd1?'
tRp233
ag6
(g8
S'\xd9\x89\x9d\xd8\x89\x9d\xc8?'
tRp234
ag6
(g8
S'\x94\xba/\x8f\xad\x08\xaa?'
tRp235
ag6
(g8
S'\x00\x00\x00\x00\x00\x00\xe0?'
tRp236
ag6
(g8
S'B\x1a\xa4A\x1a\xa4\xe1?'
tRp237
ag6
(g8
S'\xc7q\x1c\xc7q\x1c\xc7?'
tRp238
ag6
(g8
S'\xa2\x93\xf6A2\xa0\xde?'
tRp239
ag6
(g8
S'D\xb5\xce\xbe\x88j\xdd?'
tRp240
ag6
(g8
S'\x00\x00\x00\x00\x00\x00\x00\x00'
tRp241
ag6
(g8
S'a~W\x8b\x9b0\xdf?'
tRp242
ag6
(g8
S"\xa9'\xe3\xb7K=\xc9?"
tRp243
ag6
(g8
S'\x94>\xe9\x93>\xe9\xc3?'
tRp244
ag6
(g8
S'GS\xe7\xd7\x1er\xd9?'
tRp245
ag6
(g8
S'\xed\x1b\xd6\xbea\xed\xdb?'
tRp246
ag6
(g8
S'\xb0\xb3M\x900Z\xde?'
tRp247
ag6
(g8
S')\xf13J\xfc\x8c\xc2?'
tRp248
ag6
(g8
S'\x1a\xa4A\x1a\xa4A\x9a?'
tRp249
ag6
(g8
S'\x1a\xa4A\x1a\xa4A\x8a?'
tRp250
ag6
(g8
S'\x00\x00\x00\x00\x00\x00\x00\x00'
tRp251
ag6
(g8
S'"5\xc1x+\xfb\xac?'
tRp252
ag6
(g8
S'\xbecj`\xef\x98\xaa?'
tRp253
ag6
(g8
S'y\r\xe55\x94\xd7\xb0?'
tRp254
ag6
(g8
S'\x11\x11\x11\x11\x11\x11\xa1?'
tRp255
ag6
(g8
S'\xd93\x10\x95\x8e\xec\x89?'
tRp256
ag6
(g8
S'^Cy\r\xe55\xa4?'
tRp257
ag6
(g8
S'\xd93\x10\x95\x8e\xec\x99?'
tRp258
ag6
(g8
S'\xa0,\x81M\xfb\xc9\xa2?'
tRp259
ag6
(g8
S'\xbecj`\xef\x98\xaa?'
tRp260
ag6
(g8
S'h *\x1d\xd93\xb0?'
tRp261
ag6
(g8
S'\x14;\xb1\x13;\xb1\xa3?'
tRp262
ag6
(g8
S'\x14;\xb1\x13;\xb1\xa3?'
tRp263
ag6
(g8
S'\xce\xcaO\x88\xb3\xf2\xa3?'
tRp264
ag6
(g8
S'\x14;\xb1\x13;\xb1\xa3?'
tRp265
ag6
(g8
S'\x97\x96\x96\x96\x96\x96\xb6?'
tRp266
ag6
(g8
S'\x1a\xa4A\x1a\xa4A\x9a?'
tRp267
ag6
(g8
S'\x1a\xa4A\x1a\xa4A\x9a?'
tRp268
ag6
(g8
S'\x1a\xa4A\x1a\xa4A\x9a?'
tRp269
ag6
(g8
S'X\xa4\x0c<\xdd\x9a\xcf?'
tRp270
ag6
(g8
S'\xe0\x07~\xe0\x07~\xe0?'
tRp271
ag6
(g8
S'\x11\x11\x11\x11\x11\x11\xb1?'
tRp272
ag6
(g8
S'?4\xd6\x87\xc6\xfa\xd0?'
tRp273
ag6
(g8
S'\xbb\x12\xb5+Q\xbb\xb2?'
tRp274
ag6
(g8
S'\x9a\x99\x99\x99\x99\x99\xa9?'
tRp275
ag6
(g8
S'J\xf1\x02\x99\x14/\xc0?'
tRp276
ag6
(g8
S'\xe3&\xcc\xefjq\xa3?'
tRp277
ag6
(g8
S'\xe0\xc0\x81\x03\x07\x0e\x9c?'
tRp278
ag6
(g8
S'\x92$I\x92$I\xa2?'
tRp279
ag6
(g8
S'\x97\x96\x96\x96\x96\x96\xb6?'
tRp280
ag6
(g8
S'\xe3&\xcc\xefjq\xa3?'
tRp281
ag6
(g8
S'\xe3&\xcc\xefjq\xa3?'
tRp282
ag6
(g8
S'\xe3&\xcc\xefjq\xa3?'
tRp283
ag6
(g8
S'\x1a\xa4A\x1a\xa4A\xaa?'
tRp284
ag6
(g8
S'{\x14\xaeG\xe1z\xa4?'
tRp285
ag6
(g8
S'\xbf\xf6\x90\xcb\x8a\x81\xa2?'
tRp286
ag6
(g8
S'\x97\x96\x96\x96\x96\x96\xb6?'
tRp287
ag6
(g8
S'\x14;\xb1\x13;\xb1\xa3?'
tRp288
ag6
(g8
S'4u~\xed!\x97\xb5?'
tRp289
ag6
(g8
S'4u~\xed!\x97\xb5?'
tRp290
ag6
(g8
S'\xe3&\xcc\xefjq\xa3?'
tRp291
ag6
(g8
S'H\xb4\xc2\xe6@\xa2\xa5?'
tRp292
ag6
(g8
S'\x1c\xc2!\x1c\xc2!\xac?'
tRp293
ag6
(g8
S'\xc8w\xe1 z|\xa7?'
tRp294
ag6
(g8
S'w\xc4\x1dqG\xdc\xb1?'
tRp295
ag6
(g8
S'\xd93\x10\x95\x8e\xec\x99?'
tRp296
ag6
(g8
S'\x14\xa1\x08E(B\xb1?'
tRp297
ag6
(g8
S'333333\xa3?'
tRp298
ag6
(g8
S'UUUUUU\xa5?'
tRp299
ag6
(g8
S'\x18\x18\x18\x18\x18\x18\x98?'
tRp300
ag6
(g8
S'\x14;\xb1\x13;\xb1\xd3?'
tRp301
ag6
(g8
S'333333\xa3?'
tRp302
ag6
(g8
S'\x9a\x99\x99\x99\x99\x99\x99?'
tRp303
ag6
(g8
S'\xe0\xe9\xd6\xfc\xb0H\x99?'
tRp304
ag6
(g8
S')\xe2\xd0I\xfb \x89?'
tRp305
ag6
(g8
S'\x00\x00\x00\x00\x00\x00\x00\x00'
tRp306
ag6
(g8
S'\x00\x00\x00\x00\x00\x00\x00\x00'
tRp307
ag6
(g8
S'(\xaf\xa1\xbc\x86\xf2\xba?'
tRp308
ag6
(g8
S'\x00\x00\x00\x00\x00\x00\x00\x00'
tRp309
ag6
(g8
S'\x00\x00\x00\x00\x00\x00\x00\x00'
tRp310
ag6
(g8
S'\x00\x00\x00\x00\x00\x00\x00\x00'
tRp311
ag6
(g8
S'\x00\x00\x00\x00\x00\x00\x00\x00'
tRp312
ag6
(g8
S'\x00\x00\x00\x00\x00\x00\x00\x00'
tRp313
ag6
(g8
S'\x00\x00\x00\x00\x00\x00\x00\x00'
tRp314
ag6
(g8
S'\x0b\x84\x91v\xac@\xb8?'
tRp315
ag6
(g8
S'\x94>\xe9\x93>\xe9\xb3?'
tRp316
ag6
(g8
S'\x84\x10B\x08!\x84\xa0?'
tRp317
ag6
(g8
S'\x17]t\xd1E\x17\xad?'
tRp318
ag6
(g8
S'\x12\x12\x12\x12\x12\x12\xa2?'
tRp319
ag6
(g8
S'\xe0\xe9\xd6\xfc\xb0H\x89?'
tRp320
ag6
(g8
S'\x1a\xa4A\x1a\xa4A\x8a?'
tRp321
ag6
(g8
S'\x14\xa1\x08E(B\xa1?'
tRp322
ag6
(g8
S'\xfa\x18\x9c\x8f\xc1\xf9\x88?'
tRp323
ag6
(g8
S'\xfa\x18\x9c\x8f\xc1\xf9\x98?'
tRp324
ag6
(g8
S'F\x17]t\xd1E\xb7?'
tRp325
ag6
(g8
S'\x14;\xb1\x13;\xb1\xb3?'
tRp326
ag6
(g8
S'\xe0\xe9\xd6\xfc\xb0H\x99?'
tRp327
ag6
(g8
S'\x00\x00\x00\x00\x00\x00\x00\x00'
tRp328
ag6
(g8
S'\x00\x00\x00\x00\x00\x00\x00\x00'
tRp329
ag6
(g8
S'\xfa\x18\x9c\x8f\xc1\xf9\x98?'
tRp330
ag6
(g8
S'\xfa\x18\x9c\x8f\xc1\xf9\x98?'
tRp331
ag6
(g8
S'K\xd4\xaeD\xedJ\xc4?'
tRp332
ag6
(g8
S'B{\t\xed%\xb4\xc7?'
tRp333
ag6
(g8
S'W\xa2v%jW\xe2?'
tRp334
ag6
(g8
S'\x14;\xb1\x13;\xb1\xa3?'
tRp335
ag6
(g8
S'\x00\x00\x00\x00\x00\x00\xd0?'
tRp336
ag6
(g8
S'\x00\x00\x00\x00\x00\x00\x00\x00'
tRp337
ag6
(g8
S'\x92$I\x92$I\xa2?'
tRp338
ag6
(g8
S'\x1a\xa4A\x1a\xa4A\x9a?'
tRp339
ag6
(g8
S'\x06\x16X`\x81\x05\xa6?'
tRp340
ag6
(g8
S'\x00\x00\x00\x00\x00\x00\x00\x00'
tRp341
ag6
(g8
S'\x92$I\x92$I\xe2?'
tRp342
ag6
(g8
S'\x00\x00\x00\x00\x00\x00\x00\x00'
tRp343
ag6
(g8
S'dp>\x06\xe7c\xd0?'
tRp344
ag6
(g8
S'qG\xdc\x11w\xc4\xad?'
tRp345
ag6
(g8
S'\xedX\x810\xd2\x8e\x85?'
tRp346
ag6
(g8
S'\x92$I\x92$I\xa2?'
tRp347
ag6
(g8
S'\x9a\x99\x99\x99\x99\x99\xb9?'
tRp348
ag6
(g8
S'p\x81\x0b\\\xe0\x02\xb7?'
tRp349
ag6
(g8
S'\x00\x00\x00\x00\x00\x00\x00\x00'
tRp350
ag6
(g8
S'\xfa\x18\x9c\x8f\xc1\xf9\x88?'
tRp351
ag6
(g8
S'\x11\x11\x11\x11\x11\x11\xb1?'
tRp352
ag6
(g8
S'\x00\x00\x00\x00\x00\x00\x00\x00'
tRp353
ag6
(g8
S'\x00\x00\x00\x00\x00\x00\x00\x00'
tRp354
ag6
(g8
S'\x00\x00\x00\x00\x00\x00\x00\x00'
tRp355
ag6
(g8
S'\x1e\x1e\x1e\x1e\x1e\x1e\xae?'
tRp356
ag6
(g8
S'\xfa\x18\x9c\x8f\xc1\xf9\x98?'
tRp357
ag6
(g8
S'\x00\x00\x00\x00\x00\x00\x00\x00'
tRp358
ag6
(g8
S'\x18\x18\x18\x18\x18\x18\x98?'
tRp359
ag6
(g8
S'\x15\xf8\xe2\xea\x07\x1d\xa5?'
tRp360
asS'missed'
p361
(lp362
L0L
aL0L
aL1L
aL1L
aL0L
aL0L
aL1L
aL1L
aL0L
aL4L
aL1L
aL8L
aL1L
aL1L
aL0L
aL0L
aL2L
aL0L
aL0L
aL0L
aL0L
aL0L
aL4L
aL1L
aL0L
aL0L
aL0L
aL0L
aL0L
aL0L
aL4L
aL10L
aL2L
aL24L
aL22L
aL20L
aL0L
aL7L
aL1L
aL12L
aL0L
aL0L
aL0L
aL0L
aL2L
aL0L
aL0L
aL0L
aL0L
aL0L
aL24L
aL0L
aL0L
aL0L
aL1L
aL0L
aL0L
aL0L
aL0L
aL0L
aL1L
aL0L
aL0L
aL0L
aL0L
aL0L
aL2L
aL0L
aL0L
aL0L
aL0L
aL0L
aL0L
aL0L
aL0L
aL0L
aL0L
aL0L
aL0L
aL0L
aL0L
aL0L
aL1L
aL22L
aL22L
aL22L
aL0L
aL0L
aL1L
aL1L
aL0L
aL0L
aL0L
aL0L
aL0L
aL0L
aL0L
aL23L
aL4L
aL13L
aL27L
aL29L
aL27L
aL2L
aL0L
aL0L
aL0L
aL0L
aL0L
aL0L
aL0L
aL0L
aL0L
aL0L
aL1L
aL0L
aL0L
aL0L
aL0L
aL0L
aL0L
aL0L
aL21L
aL19L
aL0L
aL0L
aL0L
aL0L
aL0L
aL19L
aL0L
aL0L
aL0L
aL0L
aL0L
aL0L
aL1L
aL1L
aL0L
aL0L
aL0L
aL0L
aL0L
aL1L
aL0L
aL0L
aL0L
aL0L
aL14L
aL5L
aL0L
aL0L
aL0L
aL0L
aL0L
aL0L
aL1L
aL0L
aL0L
aL0L
aL0L
aL0L
aL15L
aL19L
aL9L
aL8L
aL10L
aL11L
aL10L
aL8L
aL0L
aL0L
aL0L
aL0L
aL1L
aL2L
aL1L
aL0L
aL5L
aL0L
aL1L
aL0L
aL0L
aL1L
aL0L
aL0L
aL0L
aL0L
aL2L
aL0L
aL0L
aL0L
aL0L
aL1L
aL0L
aL0L
aL1L
aL0L
aL1L
aL14L
aL20L
aL1L
aL0L
aL1L
aL0L
aL0L
aL2L
aL0L
aL0L
aL0L
aL0L
aL0L
aL1L
aL0L
aL0L
aL4L
aL0L
aL21L
aL19L
aL26L
aL59L
aL24L
aL130L
aL37L
aL2L
aL30L
aL26L
aL7L
aL26L
aL8L
aL59L
aL44L
aL1L
aL15L
aL2L
aL4L
aL75L
aL119L
aL106L
aL59L
aL3L
aL1L
aL1L
aL0L
aL0L
aL0L
aL0L
aL0L
aL0L
aL0L
aL5L
aL0L
aL5L
aL0L
aL0L
aL0L
aL0L
aL4L
aL0L
aL0L
aL0L
aL0L
aL22L
aL2L
aL9L
aL0L
aL0L
aL0L
aL0L
aL0L
aL0L
aL4L
aL0L
aL0L
aL0L
aL0L
aL0L
aL0L
aL4L
aL0L
aL0L
aL0L
aL0L
aL0L
aL0L
aL0L
aL0L
aL0L
aL3L
aL0L
aL0L
aL0L
aL7L
aL0L
aL1L
aL0L
aL0L
aL0L
aL0L
aL1L
aL0L
aL0L
aL0L
aL0L
aL0L
aL0L
aL0L
aL1L
aL1L
aL0L
aL1L
aL0L
aL0L
aL0L
aL0L
aL0L
aL0L
aL0L
aL0L
aL0L
aL1L
aL0L
aL0L
aL3L
aL0L
aL35L
aL1L
aL0L
aL1L
aL1L
aL0L
aL1L
aL0L
aL0L
aL0L
aL13L
aL0L
aL0L
aL1L
aL0L
aL0L
aL0L
aL1L
aL1L
aL1L
aL0L
aL1L
aL1L
aL1L
aL0L
aL0L
aL0L
asS'history_length'
p363
I6
sS'recall'
p364
(lp365
I1
aI1
aF0
aF0
aI1
aI1
aF0
aF0
aI1
aF0
aF0.75
aF0.1111111111111111
aF0
aF0
aI1
aI1
aF0.33333333333333331
aF1
aI1
aI1
aI1
aI1
aF0
aF0
aI1
aI1
aI1
aI1
aI1
aF1
aF0.20000000000000001
aF0.090909090909090912
aF0.59999999999999998
aF0.52941176470588236
aF0.58490566037735847
aF0.59183673469387754
aI1
aF0.29999999999999999
aF0
aF0.77358490566037741
aF1
aF1
aI1
aI1
aF0.75
aI1
aI1
aI1
aI1
aF1
aF0.22580645161290322
aF1
aI1
aI1
aF0
aI1
aI1
aI1
aI1
aI1
aF0
aF1
aF1
aF1
aF1
aF1
aF0
aF1
aI1
aI1
aI1
aI1
aI1
aI1
aI1
aI1
aI1
aF1
aI1
aF1
aI1
aI1
aF0.98648648648648651
aF0.70270270270270274
aF0.70270270270270274
aF0.70270270270270274
aI1
aI1
aF0.5
aF0.875
aI1
aI1
aI1
aF1
aI1
aI1
aI1
aF0.68055555555555558
aF0.73333333333333328
aF0.61764705882352944
aF0.625
aF0.59722222222222221
aF0.625
aF0.5
aI1
aI1
aI1
aF1
aF1
aF1
aF1
aI1
aI1
aF1
aF0
aI1
aI1
aI1
aI1
aI1
aI1
aI1
aF0.70833333333333337
aF0.73611111111111116
aI1
aI1
aI1
aI1
aI1
aF0.66666666666666663
aI1
aI1
aI1
aI1
aI1
aI1
aF0
aF0.5
aF1
aF1
aF1
aF1
aF1
aF0.5
aF1
aF1
aI1
aI1
aF0.65000000000000002
aF0.84848484848484851
aF1
aF1
aI1
aF1
aF1
aF1
aF0.5
aF1
aF1
aF1
aF1
aF1
aF0.65116279069767447
aF0.60416666666666663
aF0.8125
aF0.83333333333333337
aF0.80769230769230771
aF0.78431372549019607
aF0.79591836734693877
aF0.82222222222222219
aF1
aF1
aF1
aF1
aF0.5
aF0.33333333333333331
aF0.66666666666666663
aF1
aF0.66666666666666663
aF1
aF0.5
aF1
aF1
aF0.66666666666666663
aF1
aF1
aF1
aF1
aF0.33333333333333331
aF1
aI1
aI1
aF1
aF0.5
aF1
aF1
aF0.5
aI1
aF0.5
aF0.75438596491228072
aF0.39393939393939392
aF0.5
aF1
aF0.5
aF1
aF1
aF0.33333333333333331
aF1
aF1
aI1
aF1
aI1
aF0
aF1
aF1
aF0.73333333333333328
aF1
aF0.70833333333333337
aF0.73239436619718312
aF0.61764705882352944
aF0.51639344262295084
aF0.69999999999999996
aF0.56810631229235875
aF0.66363636363636369
aF0.875
aF0.33333333333333331
aF0.10344827586206896
aF0.73076923076923073
aF0.62318840579710144
aF0.61904761904761907
aF0.56934306569343063
aF0.77083333333333337
aF0
aF0.83695652173913049
aF0.875
aF0.63636363636363635
aF0.56896551724137934
aF0.58536585365853655
aF0.62277580071174377
aF0.33707865168539325
aF0.40000000000000002
aF0.5
aF0
aF1
aF1
aF1
aF1
aF1
aF1
aF1
aF0.44444444444444442
aF1
aF0.5
aF1
aF1
aF1
aF1
aF0.42857142857142855
aF1
aF1
aF1
aF1
aF0.7528089887640449
aF0.33333333333333331
aF0.59090909090909094
aF1
aF1
aF1
aF1
aF1
aF1
aF0.42857142857142855
aF1
aF1
aF1
aF1
aF1
aF1
aF0.42857142857142855
aF1
aF1
aF1
aF1
aF1
aF1
aF1
aF1
aF1
aF0.66666666666666663
aF1
aF1
aF1
aF0.63157894736842102
aF1
aF0.66666666666666663
aF1
aF1
aI1
aI1
aF0.80000000000000004
aI1
aI1
aI1
aI1
aI1
aI1
aF1
aF0.875
aF0.75
aF1
aF0.75
aF1
aF1
aF1
aF1
aF1
aF1
aF1
aF1
aI1
aF0
aF1
aF1
aF0.8125
aF1
aF0.57317073170731703
aF0.5
aF1
aF0
aF0.8571428571428571
aF1
aF0.80000000000000004
aI1
aF1
aI1
aF0.61764705882352944
aF1
aF1
aF0.75
aF1
aF1
aI1
aF0.5
aF0.8571428571428571
aF0
aI1
aF0
aF0.83333333333333337
aF0.66666666666666663
aI1
aF1
aF1
asS'durations'
p366
(lp367
F0.45067691802978516
aF0.00020718574523925781
aF0.0089550018310546875
aF0.022786855697631836
aF0.013957023620605469
aF0.012106895446777344
aF0.0083260536193847656
aF0.017385959625244141
aF0.018846988677978516
aF0.01476287841796875
aF0.02385401725769043
aF0.037636995315551758
aF0.008419036865234375
aF0.0087361335754394531
aF0.94061493873596191
aF0.0046641826629638672
aF0.015923023223876953
aF0.015182971954345703
aF0.0092668533325195312
aF0.020118951797485352
aF0.0051970481872558594
aF0.0073919296264648438
aF0.014904022216796875
aF0.010059118270874023
aF0.024086952209472656
aF0.016079187393188477
aF0.0087618827819824219
aF0.014376163482666016
aF0.015292882919311523
aF0.031329870223999023
aF0.015779018402099609
aF0.061322927474975586
aF0.046896934509277344
aF0.022891998291015625
aF0.038891077041625977
aF0.019310951232910156
aF0.00018286705017089844
aF0.045625925064086914
aF0.0152740478515625
aF0.054556846618652344
aF0.082856893539428711
aF0.0082380771636962891
aF0.00017809867858886719
aF0.02434992790222168
aF0.037445068359375
aF0.025164127349853516
aF0.026422977447509766
aF0.014550924301147461
aF0.028641939163208008
aF0.050952911376953125
aF0.02642512321472168
aF0.022747993469238281
aF0.014793157577514648
aF0.027743816375732422
aF0.037295103073120117
aF0.026945829391479492
aF0.025614023208618164
aF0.021632909774780273
aF0.025348901748657227
aF0.056135892868041992
aF0.027604103088378906
aF0.025969028472900391
aF0.027244806289672852
aF0.028433084487915039
aF0.028578042984008789
aF0.023075103759765625
aF0.027197837829589844
aF0.03151392936706543
aF0.027534961700439453
aF0.044262886047363281
aF0.024454116821289062
aF0.025929927825927734
aF0.024570941925048828
aF0.027192115783691406
aF0.038096904754638672
aF0.023087024688720703
aF0.026389837265014648
aF0.010574102401733398
aF0.0044820308685302734
aF0.042654991149902344
aF0.026846885681152344
aF0.025096893310546875
aF0.055247068405151367
aF0.016556024551391602
aF0.026015043258666992
aF0.018977880477905273
aF0.024854898452758789
aF0.024498939514160156
aF0.031438112258911133
aF0.044313907623291016
aF0.026001930236816406
aF0.024777889251708984
aF0.024710178375244141
aF0.030781984329223633
aF0.042773008346557617
aF0.025503873825073242
aF0.025354862213134766
aF0.030488014221191406
aF0.0035851001739501953
aF0.034662961959838867
aF0.027039051055908203
aF0.025677919387817383
aF0.031577110290527344
aF0.036653041839599609
aF0.043234109878540039
aF0.025352001190185547
aF0.02785801887512207
aF0.028748035430908203
aF0.034705877304077148
aF0.041802167892456055
aF0.030802011489868164
aF0.013885974884033203
aF0.0001850128173828125
aF0.034137964248657227
aF0.045273065567016602
aF0.019111156463623047
aF0.024896144866943359
aF0.029246807098388672
aF0.025923967361450195
aF0.043187856674194336
aF0.035712957382202148
aF0.025642871856689453
aF0.026057004928588867
aF0.030432939529418945
aF0.045094013214111328
aF0.030233144760131836
aF0.02493596076965332
aF0.024223089218139648
aF0.028336048126220703
aF0.053138017654418945
aF0.0088419914245605469
aF0.021967887878417969
aF0.00018310546875
aF0.026397943496704102
aF0.044442176818847656
aF0.027102947235107422
aF0.020781040191650391
aF0.025635957717895508
aF0.023123025894165039
aF0.047563076019287109
aF0.028051137924194336
aF0.025670051574707031
aF0.031139850616455078
aF0.02897191047668457
aF0.039129018783569336
aF0.028146982192993164
aF0.00087022781372070312
aF0.00018000602722167969
aF0.012161016464233398
aF0.049241065979003906
aF0.028471946716308594
aF0.029349803924560547
aF0.00019693374633789062
aF0.032979965209960938
aF0.054022073745727539
aF0.0086879730224609375
aF0.028589010238647461
aF0.033973932266235352
aF0.027853012084960938
aF0.045268058776855469
aF0.029113054275512695
aF0.028387069702148438
aF0.023154973983764648
aF0.026951074600219727
aF0.046240091323852539
aF0.028789997100830078
aF0.027848958969116211
aF0.030725002288818359
aF0.027428865432739258
aF0.042071104049682617
aF0.015142917633056641
aF0.036636114120483398
aF0.027781963348388672
aF0.031713008880615234
aF0.047358036041259766
aF0.030973911285400391
aF0.031926870346069336
aF0.0056068897247314453
aF0.030745983123779297
aF0.048510074615478516
aF0.028072118759155273
aF0.031569957733154297
aF0.030447959899902344
aF0.033648967742919922
aF0.029020071029663086
aF0.030090808868408203
aF0.030635833740234375
aF0.033240079879760742
aF0.034404993057250977
aF0.04008793830871582
aF0.00019001960754394531
aF0.0090539455413818359
aF0.029611825942993164
aF0.029046058654785156
aF0.04826807975769043
aF0.036810159683227539
aF0.022298812866210938
aF0.00018286705017089844
aF0.014310121536254883
aF0.043077945709228516
aF0.026793003082275391
aF0.031570911407470703
aF0.034609079360961914
aF0.03498387336730957
aF0.047303915023803711
aF0.013494968414306641
aF0.034803867340087891
aF0.029916048049926758
aF0.022037029266357422
aF0.019994974136352539
aF0.030106067657470703
aF0.00018191337585449219
aF0.017534971237182617
aF0.029369115829467773
aF0.048326015472412109
aF0.029821872711181641
aF0.026447057723999023
aF0.026108980178833008
aF0.027867794036865234
aF0.066356182098388672
aF0.059826850891113281
aF0.029042959213256836
aF0.15097403526306152
aF0.049729108810424805
aF0.03390192985534668
aF0.031256198883056641
aF0.023008108139038086
aF0.011460065841674805
aF0.031352043151855469
aF0.047435998916625977
aF0.065563201904296875
aF0.14118289947509766
aF0.00022006034851074219
aF0.062441825866699219
aF0.040453910827636719
aF0.01556396484375
aF0.09961390495300293
aF0.16589784622192383
aF0.15600109100341797
aF0.098515033721923828
aF0.018697023391723633
aF0.031753778457641602
aF0.0079672336578369141
aF0.037382841110229492
aF0.048642873764038086
aF0.032510042190551758
aF0.033974885940551758
aF0.028074026107788086
aF0.034723997116088867
aF0.047060966491699219
aF0.037112951278686523
aF0.028814077377319336
aF0.02717280387878418
aF0.027781963348388672
aF0.043896198272705078
aF0.029989004135131836
aF0.032324790954589844
aF0.010624885559082031
aF0.031682014465332031
aF0.046918153762817383
aF0.031072139739990234
aF0.036890983581542969
aF0.052524089813232422
aF0.0051751136779785156
aF0.042563915252685547
aF0.031786203384399414
aF0.03481292724609375
aF0.035331010818481445
aF0.034506082534790039
aF0.045001983642578125
aF0.032821893692016602
aF0.014529943466186523
aF0.03475189208984375
aF0.027504920959472656
aF0.047972917556762695
aF0.031949996948242188
aF0.026022195816040039
aF0.033123970031738281
aF0.014723062515258789
aF0.046513080596923828
aF0.032779932022094727
aF0.029047966003417969
aF0.028538942337036133
aF0.026958942413330078
aF0.054568052291870117
aF0.043673992156982422
aF0.030754804611206055
aF0.030755996704101562
aF0.030775070190429688
aF0.044556856155395508
aF0.024486780166625977
aF0.032357931137084961
aF0.011859893798828125
aF0.033025979995727539
aF0.048554897308349609
aF0.035650968551635742
aF0.069113016128540039
aF0.025712013244628906
aF0.029667854309082031
aF0.034372806549072266
aF0.0092082023620605469
aF0.021848917007446289
aF0.028671026229858398
aF0.029590845108032227
aF0.049769878387451172
aF0.029593229293823242
aF0.034857034683227539
aF0.037734031677246094
aF0.040998935699462891
aF0.062314987182617188
aF0.031930923461914062
aF0.032171010971069336
aF0.030394077301025391
aF0.034145116806030273
aF0.05022120475769043
aF0.032425165176391602
aF0.032925128936767578
aF0.027379035949707031
aF0.034157037734985352
aF0.041987895965576172
aF0.0002079010009765625
aF0.028903961181640625
aF0.031579017639160156
aF0.028404951095581055
aF0.048409938812255859
aF0.027019977569580078
aF0.0090401172637939453
aF0.021096944808959961
aF0.00019812583923339844
aF0.080594062805175781
aF0.032042026519775391
aF0.033854007720947266
aF0.025762081146240234
aF0.0014510154724121094
aF0.018609046936035156
aF0.033738851547241211
aF0.033235788345336914
aF0.038372993469238281
aF0.03528285026550293
aF0.054577827453613281
aF0.034016132354736328
aF0.021415948867797852
aF0.032699108123779297
aF0.030354022979736328
aF0.042786121368408203
aF0.00063586235046386719
aF0.00017404556274414062
aF0.031975030899047852
aF0.036221981048583984
aF0.019613027572631836
aF0.032119989395141602
aF0.03355097770690918
asS'step'
p368
(lp369
I1
aI2
aI3
aI4
aI5
aI6
aI7
aI8
aI9
aI10
aI11
aI12
aI13
aI14
aI15
aI16
aI17
aI18
aI19
aI20
aI21
aI22
aI23
aI24
aI25
aI26
aI27
aI28
aI29
aI30
aI31
aI32
aI33
aI34
aI35
aI36
aI37
aI38
aI39
aI40
aI41
aI42
aI43
aI44
aI45
aI46
aI47
aI48
aI49
aI50
aI51
aI52
aI53
aI54
aI55
aI56
aI57
aI58
aI59
aI60
aI61
aI62
aI63
aI64
aI65
aI66
aI67
aI68
aI69
aI70
aI71
aI72
aI73
aI74
aI75
aI76
aI77
aI78
aI79
aI80
aI81
aI82
aI83
aI84
aI85
aI86
aI87
aI88
aI89
aI90
aI91
aI92
aI93
aI94
aI95
aI96
aI97
aI98
aI99
aI100
aI101
aI102
aI103
aI104
aI105
aI106
aI107
aI108
aI109
aI110
aI111
aI112
aI113
aI114
aI115
aI116
aI117
aI118
aI119
aI120
aI121
aI122
aI123
aI124
aI125
aI126
aI127
aI128
aI129
aI130
aI131
aI132
aI133
aI134
aI135
aI136
aI137
aI138
aI139
aI140
aI141
aI142
aI143
aI144
aI145
aI146
aI147
aI148
aI149
aI150
aI151
aI152
aI153
aI154
aI155
aI156
aI157
aI158
aI159
aI160
aI161
aI162
aI163
aI164
aI165
aI166
aI167
aI168
aI169
aI170
aI171
aI172
aI173
aI174
aI175
aI176
aI177
aI178
aI179
aI180
aI181
aI182
aI183
aI184
aI185
aI186
aI187
aI188
aI189
aI190
aI191
aI192
aI193
aI194
aI195
aI196
aI197
aI198
aI199
aI200
aI201
aI202
aI203
aI204
aI205
aI206
aI207
aI208
aI209
aI210
aI211
aI212
aI213
aI214
aI215
aI216
aI217
aI218
aI219
aI220
aI221
aI222
aI223
aI224
aI225
aI226
aI227
aI228
aI229
aI230
aI231
aI232
aI233
aI234
aI235
aI236
aI237
aI238
aI239
aI240
aI241
aI242
aI243
aI244
aI245
aI246
aI247
aI248
aI249
aI250
aI251
aI252
aI253
aI254
aI255
aI256
aI257
aI258
aI259
aI260
aI261
aI262
aI263
aI264
aI265
aI266
aI267
aI268
aI269
aI270
aI271
aI272
aI273
aI274
aI275
aI276
aI277
aI278
aI279
aI280
aI281
aI282
aI283
aI284
aI285
aI286
aI287
aI288
aI289
aI290
aI291
aI292
aI293
aI294
aI295
aI296
aI297
aI298
aI299
aI300
aI301
aI302
aI303
aI304
aI305
aI306
aI307
aI308
aI309
aI310
aI311
aI312
aI313
aI314
aI315
aI316
aI317
aI318
aI319
aI320
aI321
aI322
aI323
aI324
aI325
aI326
aI327
aI328
aI329
aI330
aI331
aI332
aI333
aI334
aI335
aI336
aI337
aI338
aI339
aI340
aI341
aI342
aI343
aI344
aI345
aI346
aI347
aI348
aI349
aI350
aI351
aI352
asS'agent'
p370
S'mlpclassifier'
p371
sS'sched_time'
p372
F0.5
sS'scenarios'
p373
(lp374
S'2016-01-13T09:17:00'
p375
aS'2016-01-13T10:39:00'
p376
aS'2016-01-14T12:15:00'
p377
aS'2016-01-15T09:50:00'
p378
aS'2016-01-16T00:22:00'
p379
aS'2016-01-17T00:21:00'
p380
aS'2016-01-18T00:19:00'
p381
aS'2016-01-19T00:15:00'
p382
aS'2016-01-20T00:13:00'
p383
aS'2016-01-21T00:12:00'
p384
aS'2016-01-22T00:11:00'
p385
aS'2016-01-23T00:09:00'
p386
aS'2016-01-24T00:09:00'
p387
aS'2016-01-25T00:08:00'
p388
aS'2016-01-26T00:07:00'
p389
aS'2016-01-27T00:06:00'
p390
aS'2016-01-28T00:04:00'
p391
aS'2016-01-29T00:04:00'
p392
aS'2016-01-30T00:04:00'
p393
aS'2016-01-31T00:02:00'
p394
aS'2016-02-01T00:01:00'
p395
aS'2016-02-02T00:01:00'
p396
aS'2016-02-02T23:57:00'
p397
aS'2016-02-03T23:56:00'
p398
aS'2016-02-04T23:55:00'
p399
aS'2016-02-05T23:53:00'
p400
aS'2016-02-06T23:53:00'
p401
aS'2016-02-07T23:52:00'
p402
aS'2016-02-08T23:50:00'
p403
aS'2016-02-09T23:48:00'
p404
aS'2016-02-10T23:47:00'
p405
aS'2016-02-11T23:46:00'
p406
aS'2016-02-12T23:42:00'
p407
aS'2016-02-13T23:41:00'
p408
aS'2016-02-14T23:41:00'
p409
aS'2016-02-15T23:41:00'
p410
aS'2016-02-16T00:49:00'
p411
aS'2016-02-17T08:55:00'
p412
aS'2016-02-18T02:45:00'
p413
aS'2016-02-19T02:45:00'
p414
aS'2016-02-20T02:18:00'
p415
aS'2016-02-21T02:18:00'
p416
aS'2016-02-22T00:29:00'
p417
aS'2016-02-23T07:56:00'
p418
aS'2016-02-24T03:00:00'
p419
aS'2016-02-25T02:18:00'
p420
aS'2016-02-26T02:15:00'
p421
aS'2016-02-27T02:14:00'
p422
aS'2016-02-28T02:14:00'
p423
aS'2016-02-29T02:14:00'
p424
aS'2016-03-01T00:43:00'
p425
aS'2016-03-02T00:16:00'
p426
aS'2016-03-03T00:15:00'
p427
aS'2016-03-04T00:10:00'
p428
aS'2016-03-05T00:09:00'
p429
aS'2016-03-06T00:05:00'
p430
aS'2016-03-06T23:59:00'
p431
aS'2016-03-07T23:59:00'
p432
aS'2016-03-08T23:54:00'
p433
aS'2016-03-09T23:54:00'
p434
aS'2016-03-10T21:55:00'
p435
aS'2016-03-11T21:52:00'
p436
aS'2016-03-12T21:51:00'
p437
aS'2016-03-13T21:51:00'
p438
aS'2016-03-14T21:51:00'
p439
aS'2016-03-15T19:52:00'
p440
aS'2016-03-16T19:52:00'
p441
aS'2016-03-17T19:52:00'
p442
aS'2016-03-18T19:51:00'
p443
aS'2016-03-19T19:51:00'
p444
aS'2016-03-20T19:50:00'
p445
aS'2016-03-21T19:50:00'
p446
aS'2016-03-22T19:49:00'
p447
aS'2016-03-23T19:48:00'
p448
aS'2016-03-24T19:48:00'
p449
aS'2016-03-25T19:47:00'
p450
aS'2016-03-26T19:46:00'
p451
aS'2016-03-27T19:45:00'
p452
aS'2016-03-28T18:02:00'
p453
aS'2016-03-29T18:02:00'
p454
aS'2016-03-30T18:02:00'
p455
aS'2016-03-31T18:02:00'
p456
aS'2016-04-01T18:02:00'
p457
aS'2016-04-02T18:01:00'
p458
aS'2016-04-03T18:00:00'
p459
aS'2016-04-04T18:00:00'
p460
aS'2016-04-05T18:00:00'
p461
aS'2016-04-06T18:00:00'
p462
aS'2016-04-07T18:00:00'
p463
aS'2016-04-08T18:00:00'
p464
aS'2016-04-09T18:00:00'
p465
aS'2016-04-10T18:00:00'
p466
aS'2016-04-11T18:00:00'
p467
aS'2016-04-12T18:00:00'
p468
aS'2016-04-13T18:00:00'
p469
aS'2016-04-14T18:00:00'
p470
aS'2016-04-15T18:00:00'
p471
aS'2016-04-16T18:00:00'
p472
aS'2016-04-16T18:40:00'
p473
aS'2016-04-17T18:39:00'
p474
aS'2016-04-17T20:14:00'
p475
aS'2016-04-18T19:54:00'
p476
aS'2016-04-19T18:42:00'
p477
aS'2016-04-20T18:41:00'
p478
aS'2016-04-21T18:41:00'
p479
aS'2016-04-22T18:41:00'
p480
aS'2016-04-23T18:40:00'
p481
aS'2016-04-24T18:40:00'
p482
aS'2016-04-25T18:39:00'
p483
aS'2016-04-26T18:39:00'
p484
aS'2016-04-27T18:39:00'
p485
aS'2016-04-28T18:39:00'
p486
aS'2016-04-28T20:39:00'
p487
aS'2016-05-03T18:00:00'
p488
aS'2016-05-04T18:00:00'
p489
aS'2016-05-05T18:00:00'
p490
aS'2016-05-06T18:00:00'
p491
aS'2016-05-07T18:00:00'
p492
aS'2016-05-08T18:00:00'
p493
aS'2016-05-09T18:00:00'
p494
aS'2016-05-10T18:00:00'
p495
aS'2016-05-11T18:00:00'
p496
aS'2016-05-12T18:00:00'
p497
aS'2016-05-13T18:00:00'
p498
aS'2016-05-14T18:00:00'
p499
aS'2016-05-15T18:00:00'
p500
aS'2016-05-15T20:39:00'
p501
aS'2016-05-16T20:38:00'
p502
aS'2016-05-17T20:38:00'
p503
aS'2016-05-18T20:38:00'
p504
aS'2016-05-19T19:05:00'
p505
aS'2016-05-20T18:59:00'
p506
aS'2016-05-20T20:47:00'
p507
aS'2016-05-22T18:01:00'
p508
aS'2016-05-23T18:01:00'
p509
aS'2016-05-24T18:00:00'
p510
aS'2016-05-25T18:00:00'
p511
aS'2016-05-25T20:45:00'
p512
aS'2016-05-26T20:40:00'
p513
aS'2016-05-27T20:40:00'
p514
aS'2016-05-28T20:40:00'
p515
aS'2016-05-29T20:40:00'
p516
aS'2016-05-30T20:40:00'
p517
aS'2016-05-31T20:39:00'
p518
aS'2016-06-01T20:36:00'
p519
aS'2016-06-02T20:36:00'
p520
aS'2016-06-03T20:36:00'
p521
aS'2016-06-03T20:41:00'
p522
aS'2016-06-07T18:01:00'
p523
aS'2016-06-08T18:00:00'
p524
aS'2016-06-09T18:00:00'
p525
aS'2016-06-10T18:00:00'
p526
aS'2016-06-10T20:23:00'
p527
aS'2016-06-12T18:09:00'
p528
aS'2016-06-13T18:09:00'
p529
aS'2016-06-14T18:08:00'
p530
aS'2016-06-15T18:08:00'
p531
aS'2016-06-16T18:08:00'
p532
aS'2016-06-17T18:07:00'
p533
aS'2016-06-18T18:05:00'
p534
aS'2016-06-19T18:05:00'
p535
aS'2016-06-20T18:05:00'
p536
aS'2016-06-21T18:00:00'
p537
aS'2016-06-22T18:00:00'
p538
aS'2016-06-22T19:10:00'
p539
aS'2016-06-23T19:10:00'
p540
aS'2016-06-24T19:10:00'
p541
aS'2016-06-25T19:09:00'
p542
aS'2016-06-26T19:08:00'
p543
aS'2016-06-27T19:07:00'
p544
aS'2016-06-28T18:56:00'
p545
aS'2016-06-29T18:54:00'
p546
aS'2016-06-30T18:54:00'
p547
aS'2016-07-01T18:52:00'
p548
aS'2016-07-02T18:51:00'
p549
aS'2016-07-03T18:51:00'
p550
aS'2016-07-04T18:51:00'
p551
aS'2016-07-05T18:51:00'
p552
aS'2016-07-06T18:49:00'
p553
aS'2016-07-07T18:49:00'
p554
aS'2016-07-08T18:49:00'
p555
aS'2016-07-09T18:48:00'
p556
aS'2016-07-10T18:48:00'
p557
aS'2016-07-11T18:47:00'
p558
aS'2016-07-12T18:47:00'
p559
aS'2016-07-13T18:46:00'
p560
aS'2016-07-14T18:46:00'
p561
aS'2016-07-15T18:45:00'
p562
aS'2016-07-16T18:42:00'
p563
aS'2016-07-17T18:42:00'
p564
aS'2016-07-17T20:44:00'
p565
aS'2016-07-19T18:00:00'
p566
aS'2016-07-20T18:00:00'
p567
aS'2016-07-21T18:00:00'
p568
aS'2016-07-22T18:00:00'
p569
aS'2016-07-23T18:00:00'
p570
aS'2016-07-24T18:00:00'
p571
aS'2016-07-24T20:44:00'
p572
aS'2016-07-26T18:00:00'
p573
aS'2016-07-27T18:00:00'
p574
aS'2016-07-28T18:00:00'
p575
aS'2016-07-29T18:00:00'
p576
aS'2016-07-30T18:00:00'
p577
aS'2016-07-31T18:00:00'
p578
aS'2016-07-31T20:43:00'
p579
aS'2016-08-01T20:43:00'
p580
aS'2016-08-02T19:07:00'
p581
aS'2016-08-03T19:00:00'
p582
aS'2016-08-04T18:57:00'
p583
aS'2016-08-04T20:46:00'
p584
aS'2016-08-07T18:00:00'
p585
aS'2016-08-07T20:43:00'
p586
aS'2016-08-09T18:01:00'
p587
aS'2016-08-10T18:01:00'
p588
aS'2016-08-11T18:01:00'
p589
aS'2016-08-12T18:01:00'
p590
aS'2016-08-13T18:01:00'
p591
aS'2016-08-14T18:01:00'
p592
aS'2016-08-15T18:01:00'
p593
aS'2016-08-16T18:01:00'
p594
aS'2016-08-17T18:00:00'
p595
aS'2016-08-18T11:33:00'
p596
aS'2016-08-19T11:03:00'
p597
aS'2016-08-20T11:03:00'
p598
aS'2016-08-20T18:43:00'
p599
aS'2016-08-21T18:43:00'
p600
aS'2016-08-22T18:43:00'
p601
aS'2016-08-23T18:29:00'
p602
aS'2016-08-24T18:08:00'
p603
aS'2016-08-25T18:08:00'
p604
aS'2016-08-26T18:01:00'
p605
aS'2016-08-27T18:01:00'
p606
aS'2016-08-27T23:57:00'
p607
aS'2016-08-29T13:04:00'
p608
aS'2016-08-30T08:00:00'
p609
aS'2016-08-30T19:08:00'
p610
aS'2016-08-31T19:06:00'
p611
aS'2016-09-01T19:04:00'
p612
aS'2016-09-02T19:02:00'
p613
aS'2016-09-03T17:50:00'
p614
aS'2016-09-04T14:30:00'
p615
aS'2016-09-04T22:37:00'
p616
aS'2016-09-05T22:32:00'
p617
aS'2016-09-06T19:09:00'
p618
aS'2016-09-07T19:00:00'
p619
aS'2016-09-08T18:59:00'
p620
aS'2016-09-09T18:58:00'
p621
aS'2016-09-10T18:58:00'
p622
aS'2016-09-11T18:58:00'
p623
aS'2016-09-12T18:58:00'
p624
aS'2016-09-13T18:53:00'
p625
aS'2016-09-14T18:50:00'
p626
aS'2016-09-15T18:50:00'
p627
aS'2016-09-16T18:50:00'
p628
aS'2016-09-17T18:49:00'
p629
aS'2016-09-18T18:49:00'
p630
aS'2016-09-19T18:48:00'
p631
aS'2016-09-20T18:48:00'
p632
aS'2016-09-21T18:48:00'
p633
aS'2016-09-22T18:48:00'
p634
aS'2016-09-23T18:48:00'
p635
aS'2016-09-24T18:48:00'
p636
aS'2016-09-25T18:48:00'
p637
aS'2016-09-26T18:28:00'
p638
aS'2016-09-27T18:27:00'
p639
aS'2016-09-28T18:27:00'
p640
aS'2016-09-29T18:25:00'
p641
aS'2016-09-30T18:24:00'
p642
aS'2016-10-01T18:24:00'
p643
aS'2016-10-02T18:24:00'
p644
aS'2016-10-03T18:23:00'
p645
aS'2016-10-04T18:23:00'
p646
aS'2016-10-05T18:23:00'
p647
aS'2016-10-06T18:23:00'
p648
aS'2016-10-07T18:23:00'
p649
aS'2016-10-08T18:23:00'
p650
aS'2016-10-09T18:21:00'
p651
aS'2016-10-10T18:21:00'
p652
aS'2016-10-11T18:20:00'
p653
aS'2016-10-12T18:20:00'
p654
aS'2016-10-13T18:18:00'
p655
aS'2016-10-14T18:17:00'
p656
aS'2016-10-15T18:17:00'
p657
aS'2016-10-16T18:17:00'
p658
aS'2016-10-17T18:16:00'
p659
aS'2016-10-18T18:15:00'
p660
aS'2016-10-19T18:15:00'
p661
aS'2016-10-20T18:15:00'
p662
aS'2016-10-21T18:15:00'
p663
aS'2016-10-22T18:15:00'
p664
aS'2016-10-23T18:15:00'
p665
aS'2016-10-24T18:13:00'
p666
aS'2016-10-25T18:11:00'
p667
aS'2016-10-26T15:51:00'
p668
aS'2016-10-27T11:55:00'
p669
aS'2016-10-27T20:43:00'
p670
aS'2016-10-28T20:43:00'
p671
aS'2016-10-29T20:43:00'
p672
aS'2016-10-30T20:43:00'
p673
aS'2016-10-31T20:43:00'
p674
aS'2016-11-01T19:08:00'
p675
aS'2016-11-02T19:01:00'
p676
aS'2016-11-03T19:00:00'
p677
aS'2016-11-04T18:58:00'
p678
aS'2016-11-05T18:58:00'
p679
aS'2016-11-06T18:56:00'
p680
aS'2016-11-07T18:55:00'
p681
aS'2016-11-08T18:54:00'
p682
aS'2016-11-09T18:53:00'
p683
aS'2016-11-10T18:53:00'
p684
aS'2016-11-11T18:53:00'
p685
aS'2016-11-12T18:53:00'
p686
aS'2016-11-13T18:53:00'
p687
aS'2016-11-14T18:51:00'
p688
aS'2016-11-15T18:49:00'
p689
aS'2016-11-16T18:49:00'
p690
aS'2016-11-17T18:49:00'
p691
aS'2016-11-18T18:47:00'
p692
aS'2016-11-19T18:44:00'
p693
aS'2016-11-20T18:44:00'
p694
aS'2016-11-20T21:21:00'
p695
aS'2016-11-22T18:00:00'
p696
aS'2016-11-23T18:00:00'
p697
aS'2016-11-24T18:00:00'
p698
aS'2016-11-25T18:00:00'
p699
aS'2016-11-25T21:16:00'
p700
aS'2016-11-26T19:27:00'
p701
aS'2016-11-27T19:27:00'
p702
aS'2016-11-27T21:24:00'
p703
aS'2016-11-29T07:43:00'
p704
aS'2016-11-29T20:46:00'
p705
aS'2016-11-30T20:45:00'
p706
aS'2016-12-01T20:44:00'
p707
aS'2016-12-02T20:44:00'
p708
aS'2016-12-03T16:20:00'
p709
aS'2016-12-05T18:00:00'
p710
aS'2016-12-06T18:00:00'
p711
aS'2016-12-07T18:00:00'
p712
aS'2016-12-08T09:13:00'
p713
aS'2016-12-09T08:59:00'
p714
aS'2016-12-10T08:18:00'
p715
aS'2016-12-10T20:47:00'
p716
aS'2016-12-11T20:47:00'
p717
aS'2016-12-12T20:47:00'
p718
aS'2016-12-13T20:46:00'
p719
aS'2016-12-14T20:46:00'
p720
aS'2016-12-14T20:49:00'
p721
aS'2016-12-16T13:47:00'
p722
aS'2016-12-17T10:35:00'
p723
aS'2016-12-17T20:46:00'
p724
aS'2016-12-20T07:04:00'
p725
aS'2016-12-20T20:45:00'
p726
asS'detected'
p727
(lp728
I0
aI0
aI0
aI0
aI0
aI0
aI0
aI0
aI0
aI0
aI3
aI1
aI0
aI0
aI0
aI0
aI1
aI1
aI0
aI0
aI0
aI0
aI0
aI0
aI0
aI0
aI0
aI0
aI0
aI1
aI1
aI1
aI3
aI27
aI31
aI29
aI0
aI3
aI0
aI41
aI2
aI1
aI0
aI0
aI6
aI0
aI0
aI0
aI0
aI1
aI7
aI30
aI0
aI0
aI0
aI0
aI0
aI0
aI0
aI0
aI0
aI1
aI1
aI1
aI3
aI1
aI0
aI1
aI0
aI0
aI0
aI0
aI0
aI0
aI0
aI0
aI0
aI1
aI0
aI1
aI0
aI0
aI73
aI52
aI52
aI52
aI0
aI0
aI1
aI7
aI0
aI0
aI0
aI1
aI0
aI0
aI0
aI49
aI11
aI21
aI45
aI43
aI45
aI2
aI0
aI0
aI0
aI1
aI1
aI1
aI1
aI0
aI0
aI2
aI0
aI0
aI0
aI0
aI0
aI0
aI0
aI0
aI51
aI53
aI0
aI0
aI0
aI0
aI0
aI38
aI0
aI0
aI0
aI0
aI0
aI0
aI0
aI1
aI1
aI1
aI2
aI1
aI1
aI1
aI1
aI2
aI0
aI0
aI26
aI28
aI33
aI33
aI0
aI1
aI1
aI7
aI1
aI1
aI1
aI1
aI1
aI6
aI28
aI29
aI39
aI40
aI42
aI40
aI39
aI37
aI2
aI17
aI2
aI1
aI1
aI1
aI2
aI3
aI10
aI1
aI1
aI1
aI1
aI2
aI1
aI2
aI2
aI1
aI1
aI1
aI0
aI0
aI1
aI1
aI1
aI1
aI1
aI0
aI1
aI43
aI13
aI1
aI1
aI1
aI1
aI1
aI1
aI1
aI1
aI0
aI1
aI0
aI0
aI1
aI2
aI11
aI15
aI51
aI52
aI42
aI63
aI56
aI171
aI73
aI14
aI15
aI3
aI19
aI43
aI13
aI78
aI148
aI0
aI77
aI14
aI7
aI99
aI168
aI175
aI30
aI2
aI1
aI0
aI6
aI4
aI5
aI3
aI1
aI3
aI2
aI4
aI4
aI5
aI3
aI3
aI3
aI3
aI3
aI2
aI2
aI2
aI20
aI67
aI1
aI13
aI6
aI4
aI11
aI3
aI2
aI3
aI3
aI3
aI3
aI3
aI4
aI3
aI3
aI3
aI3
aI7
aI7
aI3
aI3
aI5
aI5
aI6
aI2
aI6
aI3
aI3
aI2
aI12
aI3
aI2
aI2
aI2
aI0
aI0
aI4
aI0
aI0
aI0
aI0
aI0
aI0
aI9
aI7
aI3
aI5
aI3
aI1
aI1
aI3
aI1
aI2
aI8
aI6
aI2
aI0
aI0
aI2
aI2
aI13
aI15
aI47
aI1
aI14
aI0
aI6
aI2
aI4
aI0
aI4
aI0
aI21
aI5
aI1
aI3
aI9
aI8
aI0
aI1
aI6
aI0
aI0
aI0
aI5
aI2
aI0
aI2
aI4
asS'result'
p729
(lp730
(lp731
I0
aL0L
aI0
aI1
aI1
aI1
a(lp732
aa(lp733
I0
aL0L
aI0
aI1
aI1
aI1
a(lp734
aa(lp735
I0
aL1L
aI0
aF0
aF0
aI123
a(lp736
aa(lp737
I0
aL1L
aI0
aF0
aF0
aI123
a(lp738
aa(lp739
I0
aL0L
aI0
aI1
aI1
aI1
a(lp740
aa(lp741
I0
aL0L
aI0
aI1
aI1
aI1
a(lp742
aa(lp743
I0
aL1L
aI0
aF0
aF0
aI123
a(lp744
aa(lp745
I0
aL1L
aI0
aF0
aF0
aI123
a(lp746
aa(lp747
I0
aL0L
aI0
aI1
aI1
aI1
a(lp748
aa(lp749
I0
aL4L
aI0
aF0
aF0
aI123
a(lp750
aa(lp751
I3
aL1L
aI33
aF0.32415254237288132
aF0.75
aI123
a(lp752
I33
aI34
aI35
aaa(lp753
I1
aL8L
aI53
aF0.046296296296296287
aF0.1111111111111111
aI123
a(lp754
I53
aaa(lp755
I0
aL1L
aI0
aF0
aF0
aI123
a(lp756
aa(lp757
I0
aL1L
aI0
aF0
aF0
aI123
a(lp758
aa(lp759
I0
aL0L
aI0
aI1
aI1
aI1
a(lp760
aa(lp761
I0
aL0L
aI0
aI1
aI1
aI1
a(lp762
aa(lp763
I1
aL2L
aI25
aF0.085858585858585829
aF0.33333333333333331
aI123
a(lp764
I25
aaa(lp765
I1
aL0L
aI9
aF0.74242424242424243
aF1
aI123
a(lp766
I9
aaa(lp767
I0
aL0L
aI0
aI1
aI1
aI1
a(lp768
aa(lp769
I0
aL0L
aI0
aI1
aI1
aI1
a(lp770
aa(lp771
I0
aL0L
aI0
aI1
aI1
aI1
a(lp772
aa(lp773
I0
aL0L
aI0
aI1
aI1
aI1
a(lp774
aa(lp775
I0
aL4L
aI0
aF0
aF0
aI123
a(lp776
aa(lp777
I0
aL1L
aI0
aF0
aF0
aI123
a(lp778
aa(lp779
I0
aL0L
aI0
aI1
aI1
aI1
a(lp780
aa(lp781
I0
aL0L
aI0
aI1
aI1
aI1
a(lp782
aa(lp783
I0
aL0L
aI0
aI1
aI1
aI1
a(lp784
aa(lp785
I0
aL0L
aI0
aI1
aI1
aI1
a(lp786
aa(lp787
I0
aL0L
aI0
aI1
aI1
aI1
a(lp788
aa(lp789
I1
aL0L
aI23
aF0.43750000000000006
aF1
aI123
a(lp790
I23
aaa(lp791
I1
aL4L
aI28
aF0.092156862745098045
aF0.20000000000000001
aI123
a(lp792
I28
aaa(lp793
I1
aL10L
aI47
aF0.064488636363636373
aF0.090909090909090912
aI123
a(lp794
I47
aaa(lp795
I3
aL2L
aI2
aF0.58318584070796464
aF0.59999999999999998
aI123
a(lp796
I2
aI3
aI6
aaa(lp797
I27
aL24L
aI1
aF0.36094771241830065
aF0.52941176470588236
aI123
a(lp798
I1
aI2
aI7
aI9
aI10
aI11
aI12
aI13
aI14
aI15
aI16
aI17
aI18
aI19
aI20
aI21
aI24
aI25
aI26
aI27
aI28
aI29
aI30
aI31
aI33
aI35
aI36
aaa(lp799
I31
aL22L
aI1
aF0.40459525258673157
aF0.58490566037735847
aI123
a(lp800
I1
aI2
aI3
aI8
aI9
aI10
aI11
aI12
aI13
aI14
aI15
aI16
aI17
aI18
aI19
aI20
aI21
aI22
aI23
aI24
aI25
aI26
aI27
aI28
aI29
aI30
aI31
aI32
aI33
aI34
aI35
aaa(lp801
I29
aL20L
aI1
aF0.43291761148904001
aF0.59183673469387754
aI123
a(lp802
I1
aI2
aI3
aI4
aI5
aI6
aI7
aI8
aI9
aI10
aI11
aI12
aI13
aI14
aI15
aI16
aI17
aI18
aI19
aI20
aI21
aI22
aI23
aI24
aI25
aI26
aI27
aI28
aI29
aaa(lp803
I0
aL0L
aI0
aI1
aI1
aI1
a(lp804
aa(lp805
I3
aL7L
aI46
aF0.17782258064516129
aF0.29999999999999999
aI123
a(lp806
I46
aI50
aI57
aaa(lp807
I0
aL1L
aI0
aF0
aF0
aI123
a(lp808
aa(lp809
I41
aL12L
aI1
aF0.54809636118598393
aF0.77358490566037741
aI123
a(lp810
I1
aI2
aI3
aI4
aI5
aI6
aI11
aI12
aI20
aI22
aI25
aI26
aI27
aI28
aI29
aI30
aI31
aI32
aI33
aI34
aI35
aI36
aI37
aI38
aI40
aI41
aI42
aI43
aI44
aI45
aI46
aI47
aI48
aI49
aI50
aI51
aI54
aI55
aI57
aI59
aI61
aaa(lp811
I2
aL0L
aI57
aF0.70197044334975378
aF1
aI123
a(lp812
I57
aI65
aaa(lp813
I1
aL0L
aI2
aF0.94827586206896552
aF1
aI123
a(lp814
I2
aaa(lp815
I0
aL0L
aI0
aI1
aI1
aI1
a(lp816
aa(lp817
I0
aL0L
aI0
aI1
aI1
aI1
a(lp818
aa(lp819
I6
aL2L
aI1
aF0.625
aF0.75
aI123
a(lp820
I1
aI9
aI10
aI16
aI17
aI24
aaa(lp821
I0
aL0L
aI0
aI1
aI1
aI1
a(lp822
aa(lp823
I0
aL0L
aI0
aI1
aI1
aI1
a(lp824
aa(lp825
I0
aL0L
aI0
aI1
aI1
aI1
a(lp826
aa(lp827
I0
aL0L
aI0
aI1
aI1
aI1
a(lp828
aa(lp829
I1
aL0L
aI36
aF0.65533980582524265
aF1
aI123
a(lp830
I36
aaa(lp831
I7
aL24L
aI5
aF0.14363557105492589
aF0.22580645161290322
aI123
a(lp832
I5
aI6
aI8
aI41
aI43
aI44
aI45
aaa(lp833
I30
aL0L
aI1
aF0.76956521739130435
aF1
aI123
a(lp834
I1
aI2
aI3
aI5
aI6
aI7
aI8
aI9
aI10
aI11
aI12
aI13
aI14
aI15
aI16
aI17
aI18
aI19
aI20
aI21
aI22
aI23
aI24
aI25
aI26
aI27
aI28
aI29
aI30
aI31
aaa(lp835
I0
aL0L
aI0
aI1
aI1
aI1
a(lp836
aa(lp837
I0
aL0L
aI0
aI1
aI1
aI1
a(lp838
aa(lp839
I0
aL1L
aI0
aF0
aF0
aI123
a(lp840
aa(lp841
I0
aL0L
aI0
aI1
aI1
aI1
a(lp842
aa(lp843
I0
aL0L
aI0
aI1
aI1
aI1
a(lp844
aa(lp845
I0
aL0L
aI0
aI1
aI1
aI1
a(lp846
aa(lp847
I0
aL0L
aI0
aI1
aI1
aI1
a(lp848
aa(lp849
I0
aL0L
aI0
aI1
aI1
aI1
a(lp850
aa(lp851
I0
aL1L
aI0
aF0
aF0
aI123
a(lp852
aa(lp853
I1
aL0L
aI1
aF0.99295774647887325
aF1
aI123
a(lp854
I1
aaa(lp855
I1
aL0L
aI1
aF0.99342105263157887
aF1
aI123
a(lp856
I1
aaa(lp857
I1
aL0L
aI1
aF0.99295774647887325
aF1
aI123
a(lp858
I1
aaa(lp859
I3
aL0L
aI1
aF0.74479166666666674
aF1
aI123
a(lp860
I1
aI12
aI13
aaa(lp861
I1
aL0L
aI3
aF0.94680851063829785
aF1
aI123
a(lp862
I3
aaa(lp863
I0
aL2L
aI0
aF0
aF0
aI123
a(lp864
aa(lp865
I1
aL0L
aI6
aF0.92666666666666675
aF1
aI123
a(lp866
I6
aaa(lp867
I0
aL0L
aI0
aI1
aI1
aI1
a(lp868
aa(lp869
I0
aL0L
aI0
aI1
aI1
aI1
a(lp870
aa(lp871
I0
aL0L
aI0
aI1
aI1
aI1
a(lp872
aa(lp873
I0
aL0L
aI0
aI1
aI1
aI1
a(lp874
aa(lp875
I0
aL0L
aI0
aI1
aI1
aI1
a(lp876
aa(lp877
I0
aL0L
aI0
aI1
aI1
aI1
a(lp878
aa(lp879
I0
aL0L
aI0
aI1
aI1
aI1
a(lp880
aa(lp881
I0
aL0L
aI0
aI1
aI1
aI1
a(lp882
aa(lp883
I0
aL0L
aI0
aI1
aI1
aI1
a(lp884
aa(lp885
I1
aL0L
aI1
aF0.98571428571428565
aF1
aI123
a(lp886
I1
aaa(lp887
I0
aL0L
aI0
aI1
aI1
aI1
a(lp888
aa(lp889
I1
aL0L
aI18
aF0.7635135135135136
aF1
aI123
a(lp890
I18
aaa(lp891
I0
aL0L
aI0
aI1
aI1
aI1
a(lp892
aa(lp893
I0
aL0L
aI0
aI1
aI1
aI1
a(lp894
aa(lp895
I73
aL1L
aI1
aF0.7381640260950606
aF0.98648648648648651
aI123
a(lp896
I1
aI2
aI3
aI4
aI5
aI6
aI7
aI8
aI9
aI10
aI11
aI12
aI13
aI14
aI15
aI16
aI17
aI18
aI19
aI20
aI21
aI22
aI23
aI24
aI25
aI26
aI27
aI28
aI29
aI30
aI31
aI32
aI33
aI34
aI35
aI36
aI37
aI38
aI39
aI40
aI41
aI42
aI43
aI44
aI45
aI46
aI47
aI48
aI49
aI50
aI51
aI52
aI53
aI54
aI55
aI56
aI57
aI58
aI59
aI60
aI61
aI62
aI63
aI64
aI65
aI66
aI67
aI68
aI69
aI70
aI71
aI72
aI73
aaa(lp897
I52
aL22L
aI1
aF0.45580715850986125
aF0.70270270270270274
aI123
a(lp898
I1
aI2
aI3
aI4
aI5
aI6
aI7
aI8
aI9
aI10
aI11
aI12
aI13
aI14
aI15
aI16
aI17
aI18
aI19
aI20
aI21
aI22
aI23
aI24
aI25
aI26
aI27
aI28
aI29
aI30
aI31
aI32
aI33
aI34
aI35
aI36
aI37
aI38
aI39
aI40
aI41
aI42
aI43
aI44
aI45
aI46
aI47
aI48
aI49
aI50
aI51
aI52
aaa(lp899
I52
aL22L
aI1
aF0.45580715850986125
aF0.70270270270270274
aI123
a(lp900
I1
aI2
aI3
aI4
aI5
aI6
aI7
aI8
aI9
aI10
aI11
aI12
aI13
aI14
aI15
aI16
aI17
aI18
aI19
aI20
aI21
aI22
aI23
aI24
aI25
aI26
aI27
aI28
aI29
aI30
aI31
aI32
aI33
aI34
aI35
aI36
aI37
aI38
aI39
aI40
aI41
aI42
aI43
aI44
aI45
aI46
aI47
aI48
aI49
aI50
aI51
aI52
aaa(lp901
I52
aL22L
aI1
aF0.45580715850986125
aF0.70270270270270274
aI123
a(lp902
I1
aI2
aI3
aI4
aI5
aI6
aI7
aI8
aI9
aI10
aI11
aI12
aI13
aI14
aI15
aI16
aI17
aI18
aI19
aI20
aI21
aI22
aI23
aI24
aI25
aI26
aI27
aI28
aI29
aI30
aI31
aI32
aI33
aI34
aI35
aI36
aI37
aI38
aI39
aI40
aI41
aI42
aI43
aI44
aI45
aI46
aI47
aI48
aI49
aI50
aI51
aI52
aaa(lp903
I0
aL0L
aI0
aI1
aI1
aI1
a(lp904
aa(lp905
I0
aL0L
aI0
aI1
aI1
aI1
a(lp906
aa(lp907
I1
aL1L
aI2
aF0.49013157894736842
aF0.5
aI123
a(lp908
I2
aaa(lp909
I7
aL1L
aI5
aF0.64884868421052633
aF0.875
aI123
a(lp910
I5
aI7
aI12
aI15
aI30
aI32
aI40
aaa(lp911
I0
aL0L
aI0
aI1
aI1
aI1
a(lp912
aa(lp913
I0
aL0L
aI0
aI1
aI1
aI1
a(lp914
aa(lp915
I0
aL0L
aI0
aI1
aI1
aI1
a(lp916
aa(lp917
I1
aL0L
aI40
aF0.46621621621621617
aF1
aI123
a(lp918
I40
aaa(lp919
I0
aL0L
aI0
aI1
aI1
aI1
a(lp920
aa(lp921
I0
aL0L
aI0
aI1
aI1
aI1
a(lp922
aa(lp923
I0
aL0L
aI0
aI1
aI1
aI1
a(lp924
aa(lp925
I49
aL23L
aI1
aF0.45824074074074078
aF0.68055555555555558
aI123
a(lp926
I1
aI2
aI3
aI4
aI5
aI6
aI7
aI8
aI9
aI10
aI11
aI12
aI13
aI14
aI15
aI16
aI17
aI18
aI19
aI20
aI21
aI22
aI23
aI24
aI25
aI26
aI27
aI28
aI29
aI30
aI31
aI32
aI33
aI34
aI35
aI36
aI37
aI38
aI39
aI40
aI41
aI42
aI43
aI44
aI45
aI46
aI47
aI48
aI49
aaa(lp927
I11
aL4L
aI1
aF0.52105263157894732
aF0.73333333333333328
aI123
a(lp928
I1
aI2
aI3
aI4
aI5
aI6
aI7
aI8
aI9
aI10
aI11
aaa(lp929
I21
aL13L
aI2
aF0.42182662538699695
aF0.61764705882352944
aI123
a(lp930
I2
aI5
aI7
aI11
aI12
aI13
aI14
aI15
aI16
aI17
aI18
aI19
aI20
aI22
aI24
aI25
aI27
aI28
aI30
aI31
aI34
aaa(lp931
I45
aL27L
aI1
aF0.43996710526315791
aF0.625
aI123
a(lp932
I1
aI2
aI3
aI4
aI5
aI6
aI7
aI8
aI9
aI10
aI11
aI12
aI13
aI14
aI15
aI16
aI17
aI18
aI19
aI20
aI21
aI22
aI23
aI24
aI25
aI26
aI27
aI28
aI29
aI30
aI31
aI32
aI33
aI34
aI35
aI36
aI37
aI38
aI39
aI40
aI41
aI42
aI43
aI44
aI45
aaa(lp933
I43
aL29L
aI1
aF0.42808845029239762
aF0.59722222222222221
aI123
a(lp934
I1
aI2
aI3
aI4
aI5
aI6
aI7
aI8
aI9
aI10
aI11
aI12
aI13
aI14
aI15
aI16
aI17
aI18
aI19
aI20
aI21
aI22
aI23
aI24
aI25
aI26
aI27
aI28
aI29
aI30
aI31
aI32
aI33
aI34
aI35
aI36
aI37
aI38
aI39
aI40
aI41
aI42
aI44
aaa(lp935
I45
aL27L
aI1
aF0.43996710526315791
aF0.625
aI123
a(lp936
I1
aI2
aI3
aI4
aI5
aI6
aI7
aI8
aI9
aI10
aI11
aI12
aI13
aI14
aI15
aI16
aI17
aI18
aI19
aI20
aI21
aI22
aI23
aI24
aI25
aI26
aI27
aI28
aI29
aI30
aI31
aI32
aI33
aI34
aI35
aI36
aI37
aI38
aI39
aI40
aI41
aI42
aI43
aI44
aI45
aaa(lp937
I2
aL2L
aI27
aF0.28431372549019607
aF0.5
aI123
a(lp938
I27
aI62
aaa(lp939
I0
aL0L
aI0
aI1
aI1
aI1
a(lp940
aa(lp941
I0
aL0L
aI0
aI1
aI1
aI1
a(lp942
aa(lp943
I0
aL0L
aI0
aI1
aI1
aI1
a(lp944
aa(lp945
I1
aL0L
aI32
aF0.57999999999999996
aF1
aI123
a(lp946
I32
aaa(lp947
I1
aL0L
aI18
aF0.76973684210526316
aF1
aI123
a(lp948
I18
aaa(lp949
I1
aL0L
aI1
aF0.99342105263157887
aF1
aI123
a(lp950
I1
aaa(lp951
I1
aL0L
aI1
aF0.99350649350649345
aF1
aI123
a(lp952
I1
aaa(lp953
I0
aL0L
aI0
aI1
aI1
aI1
a(lp954
aa(lp955
I0
aL0L
aI0
aI1
aI1
aI1
a(lp956
aa(lp957
I2
aL0L
aI4
aF0.85897435897435892
aF1
aI123
a(lp958
I4
aI19
aaa(lp959
I0
aL1L
aI0
aF0
aF0
aI123
a(lp960
aa(lp961
I0
aL0L
aI0
aI1
aI1
aI1
a(lp962
aa(lp963
I0
aL0L
aI0
aI1
aI1
aI1
a(lp964
aa(lp965
I0
aL0L
aI0
aI1
aI1
aI1
a(lp966
aa(lp967
I0
aL0L
aI0
aI1
aI1
aI1
a(lp968
aa(lp969
I0
aL0L
aI0
aI1
aI1
aI1
a(lp970
aa(lp971
I0
aL0L
aI0
aI1
aI1
aI1
a(lp972
aa(lp973
I0
aL0L
aI0
aI1
aI1
aI1
a(lp974
aa(lp975
I51
aL21L
aI2
aF0.45349049707602346
aF0.70833333333333337
aI123
a(lp976
I2
aI3
aI4
aI5
aI6
aI7
aI8
aI9
aI11
aI12
aI13
aI14
aI15
aI16
aI17
aI18
aI19
aI20
aI21
aI22
aI23
aI24
aI25
aI26
aI27
aI28
aI29
aI30
aI31
aI32
aI33
aI34
aI35
aI36
aI37
aI38
aI39
aI40
aI41
aI42
aI43
aI44
aI45
aI46
aI47
aI48
aI49
aI50
aI51
aI52
aI53
aaa(lp977
I53
aL19L
aI1
aF0.47944078947368429
aF0.73611111111111116
aI123
a(lp978
I1
aI2
aI3
aI4
aI5
aI6
aI7
aI8
aI9
aI10
aI11
aI12
aI13
aI14
aI15
aI16
aI17
aI18
aI19
aI20
aI21
aI22
aI23
aI24
aI25
aI26
aI27
aI28
aI29
aI30
aI31
aI32
aI33
aI34
aI35
aI36
aI37
aI38
aI39
aI40
aI41
aI42
aI43
aI44
aI45
aI46
aI47
aI48
aI49
aI50
aI51
aI52
aI53
aaa(lp979
I0
aL0L
aI0
aI1
aI1
aI1
a(lp980
aa(lp981
I0
aL0L
aI0
aI1
aI1
aI1
a(lp982
aa(lp983
I0
aL0L
aI0
aI1
aI1
aI1
a(lp984
aa(lp985
I0
aL0L
aI0
aI1
aI1
aI1
a(lp986
aa(lp987
I0
aL0L
aI0
aI1
aI1
aI1
a(lp988
aa(lp989
I38
aL19L
aI5
aF0.40892354342646736
aF0.66666666666666663
aI123
a(lp990
I5
aI9
aI10
aI11
aI13
aI14
aI15
aI16
aI18
aI19
aI21
aI22
aI23
aI24
aI26
aI27
aI28
aI30
aI32
aI33
aI35
aI36
aI37
aI38
aI41
aI42
aI43
aI44
aI45
aI46
aI47
aI48
aI49
aI50
aI51
aI52
aI54
aI55
aaa(lp991
I0
aL0L
aI0
aI1
aI1
aI1
a(lp992
aa(lp993
I0
aL0L
aI0
aI1
aI1
aI1
a(lp994
aa(lp995
I0
aL0L
aI0
aI1
aI1
aI1
a(lp996
aa(lp997
I0
aL0L
aI0
aI1
aI1
aI1
a(lp998
aa(lp999
I0
aL0L
aI0
aI1
aI1
aI1
a(lp1000
aa(lp1001
I0
aL0L
aI0
aI1
aI1
aI1
a(lp1002
aa(lp1003
I0
aL1L
aI0
aF0
aF0
aI123
a(lp1004
aa(lp1005
I1
aL1L
aI1
aF0.49671052631578944
aF0.5
aI123
a(lp1006
I1
aaa(lp1007
I1
aL0L
aI1
aF0.99305555555555558
aF1
aI123
a(lp1008
I1
aaa(lp1009
I1
aL0L
aI1
aF0.99358974358974361
aF1
aI123
a(lp1010
I1
aaa(lp1011
I2
aL0L
aI1
aF0.87662337662337653
aF1
aI123
a(lp1012
I1
aI19
aaa(lp1013
I1
aL0L
aI2
aF0.97972972972972983
aF1
aI123
a(lp1014
I2
aaa(lp1015
I1
aL0L
aI1
aF0.99367088607594944
aF1
aI123
a(lp1016
I1
aaa(lp1017
I1
aL1L
aI1
aF0.49671052631578944
aF0.5
aI123
a(lp1018
I1
aaa(lp1019
I1
aL0L
aI2
aF0.97916666666666663
aF1
aI123
a(lp1020
I2
aaa(lp1021
I2
aL0L
aI1
aF0.84868421052631571
aF1
aI123
a(lp1022
I1
aI23
aaa(lp1023
I0
aL0L
aI0
aI1
aI1
aI1
a(lp1024
aa(lp1025
I0
aL0L
aI0
aI1
aI1
aI1
a(lp1026
aa(lp1027
I26
aL14L
aI2
aF0.4380681818181818
aF0.65000000000000002
aI123
a(lp1028
I2
aI3
aI4
aI5
aI6
aI7
aI8
aI9
aI10
aI11
aI12
aI13
aI14
aI15
aI16
aI17
aI18
aI20
aI21
aI22
aI23
aI24
aI25
aI26
aI27
aI28
aaa(lp1029
I28
aL5L
aI1
aF0.66905901116427435
aF0.84848484848484851
aI123
a(lp1030
I1
aI2
aI3
aI4
aI5
aI6
aI7
aI8
aI9
aI10
aI11
aI12
aI13
aI14
aI15
aI16
aI18
aI19
aI20
aI21
aI22
aI23
aI27
aI30
aI34
aI35
aI38
aI41
aaa(lp1031
I33
aL0L
aI1
aF0.7828947368421052
aF1
aI123
a(lp1032
I1
aI2
aI3
aI4
aI5
aI6
aI7
aI8
aI9
aI10
aI11
aI12
aI13
aI14
aI15
aI16
aI17
aI18
aI19
aI20
aI21
aI22
aI23
aI24
aI25
aI26
aI27
aI28
aI29
aI30
aI31
aI32
aI33
aaa(lp1033
I33
aL0L
aI1
aF0.78000000000000003
aF1
aI123
a(lp1034
I1
aI2
aI3
aI4
aI5
aI6
aI7
aI8
aI9
aI10
aI11
aI12
aI13
aI14
aI15
aI16
aI17
aI18
aI19
aI20
aI21
aI22
aI23
aI24
aI25
aI26
aI27
aI28
aI29
aI30
aI31
aI32
aI33
aaa(lp1035
I0
aL0L
aI0
aI1
aI1
aI1
a(lp1036
aa(lp1037
I1
aL0L
aI33
aF0.58333333333333326
aF1
aI123
a(lp1038
I33
aaa(lp1039
I1
aL0L
aI1
aF0.99375000000000002
aF1
aI123
a(lp1040
I1
aaa(lp1041
I7
aL0L
aI7
aF0.69354838709677424
aF1
aI123
a(lp1042
I7
aI8
aI9
aI10
aI11
aI12
aI13
aaa(lp1043
I1
aL1L
aI6
aF0.46381578947368418
aF0.5
aI123
a(lp1044
I6
aaa(lp1045
I1
aL0L
aI2
aF0.98076923076923073
aF1
aI123
a(lp1046
I2
aaa(lp1047
I1
aL0L
aI1
aF0.9933333333333334
aF1
aI123
a(lp1048
I1
aaa(lp1049
I1
aL0L
aI1
aF0.99342105263157887
aF1
aI123
a(lp1050
I1
aaa(lp1051
I1
aL0L
aI1
aF0.9933333333333334
aF1
aI123
a(lp1052
I1
aaa(lp1053
I6
aL0L
aI1
aF0.96103896103896103
aF1
aI123
a(lp1054
I1
aI2
aI3
aI4
aI5
aI6
aaa(lp1055
I28
aL15L
aI2
aF0.45736434108527135
aF0.65116279069767447
aI123
a(lp1056
I2
aI3
aI4
aI5
aI6
aI7
aI8
aI9
aI10
aI11
aI12
aI13
aI14
aI15
aI16
aI17
aI19
aI20
aI23
aI25
aI27
aI28
aI29
aI31
aI32
aI33
aI34
aI36
aaa(lp1057
I29
aL19L
aI1
aF0.46902777777777777
aF0.60416666666666663
aI123
a(lp1058
I1
aI2
aI3
aI5
aI6
aI7
aI8
aI9
aI10
aI12
aI13
aI15
aI16
aI17
aI18
aI19
aI20
aI21
aI22
aI23
aI24
aI25
aI26
aI27
aI28
aI29
aI30
aI31
aI34
aaa(lp1059
I39
aL9L
aI1
aF0.60124999999999995
aF0.8125
aI123
a(lp1060
I1
aI2
aI3
aI4
aI5
aI6
aI7
aI8
aI9
aI10
aI11
aI12
aI13
aI14
aI15
aI16
aI17
aI18
aI19
aI20
aI21
aI22
aI23
aI24
aI25
aI26
aI27
aI28
aI29
aI30
aI31
aI32
aI33
aI34
aI35
aI36
aI37
aI38
aI39
aaa(lp1061
I40
aL8L
aI1
aF0.61403508771929827
aF0.83333333333333337
aI123
a(lp1062
I1
aI2
aI3
aI4
aI5
aI6
aI7
aI8
aI9
aI10
aI11
aI12
aI13
aI14
aI15
aI16
aI17
aI18
aI19
aI20
aI21
aI22
aI23
aI24
aI25
aI26
aI27
aI28
aI29
aI30
aI31
aI32
aI33
aI34
aI35
aI36
aI37
aI38
aI39
aI40
aaa(lp1063
I42
aL10L
aI1
aF0.59943714821763594
aF0.80769230769230771
aI123
a(lp1064
I1
aI2
aI3
aI4
aI5
aI6
aI7
aI8
aI9
aI10
aI11
aI12
aI13
aI14
aI15
aI16
aI17
aI18
aI19
aI20
aI21
aI22
aI23
aI24
aI25
aI26
aI27
aI28
aI29
aI30
aI31
aI32
aI33
aI34
aI35
aI36
aI37
aI38
aI39
aI40
aI41
aI48
aaa(lp1065
I40
aL11L
aI1
aF0.5805958747135217
aF0.78431372549019607
aI123
a(lp1066
I1
aI2
aI3
aI4
aI5
aI6
aI7
aI8
aI9
aI10
aI11
aI12
aI13
aI14
aI15
aI16
aI17
aI18
aI19
aI20
aI21
aI22
aI23
aI24
aI25
aI26
aI27
aI28
aI29
aI30
aI31
aI32
aI33
aI34
aI35
aI36
aI37
aI38
aI39
aI40
aaa(lp1067
I39
aL10L
aI1
aF0.57542746828461111
aF0.79591836734693877
aI123
a(lp1068
I1
aI2
aI3
aI4
aI5
aI6
aI7
aI8
aI9
aI10
aI11
aI12
aI13
aI14
aI15
aI16
aI17
aI18
aI19
aI21
aI23
aI24
aI25
aI26
aI27
aI28
aI29
aI30
aI31
aI32
aI33
aI34
aI35
aI36
aI37
aI38
aI39
aI40
aI41
aaa(lp1069
I37
aL8L
aI1
aF0.60177133655394521
aF0.82222222222222219
aI123
a(lp1070
I1
aI2
aI3
aI4
aI5
aI6
aI7
aI8
aI9
aI10
aI11
aI12
aI13
aI14
aI15
aI16
aI17
aI18
aI19
aI20
aI21
aI22
aI23
aI24
aI25
aI26
aI27
aI28
aI29
aI30
aI31
aI32
aI33
aI34
aI35
aI36
aI37
aaa(lp1071
I2
aL0L
aI1
aF0.6785714285714286
aF1
aI123
a(lp1072
I1
aI18
aaa(lp1073
I17
aL0L
aI16
aF0.69822303921568629
aF1
aI123
a(lp1074
I16
aI20
aI21
aI22
aI23
aI24
aI25
aI26
aI28
aI32
aI34
aI35
aI36
aI37
aI38
aI41
aI43
aaa(lp1075
I2
aL0L
aI1
aF0.98717948717948711
aF1
aI123
a(lp1076
I1
aI2
aaa(lp1077
I1
aL0L
aI2
aF0.98051948051948046
aF1
aI123
a(lp1078
I2
aaa(lp1079
I1
aL1L
aI1
aF0.49679487179487181
aF0.5
aI123
a(lp1080
I1
aaa(lp1081
I1
aL2L
aI2
aF0.32657657657657652
aF0.33333333333333331
aI123
a(lp1082
I2
aaa(lp1083
I2
aL1L
aI1
aF0.65447154471544711
aF0.66666666666666663
aI123
a(lp1084
I1
aI3
aaa(lp1085
I3
aL0L
aI11
aF0.50694444444444453
aF1
aI123
a(lp1086
I11
aI12
aI14
aaa(lp1087
I10
aL5L
aI1
aF0.42380952380952375
aF0.66666666666666663
aI123
a(lp1088
I1
aI4
aI6
aI36
aI40
aI42
aI43
aI44
aI47
aI48
aaa(lp1089
I1
aL0L
aI17
aF0.78846153846153844
aF1
aI123
a(lp1090
I17
aaa(lp1091
I1
aL1L
aI1
aF0.49675324675324672
aF0.5
aI123
a(lp1092
I1
aaa(lp1093
I1
aL0L
aI2
aF0.98076923076923073
aF1
aI123
a(lp1094
I2
aaa(lp1095
I1
aL0L
aI1
aF0.99350649350649345
aF1
aI123
a(lp1096
I1
aaa(lp1097
I2
aL1L
aI1
aF0.50632911392405056
aF0.66666666666666663
aI123
a(lp1098
I1
aI38
aaa(lp1099
I1
aL0L
aI18
aF0.41666666666666669
aF1
aI123
a(lp1100
I18
aaa(lp1101
I2
aL0L
aI3
aF0.85897435897435892
aF1
aI123
a(lp1102
I3
aI20
aaa(lp1103
I2
aL0L
aI1
aF0.98717948717948711
aF1
aI123
a(lp1104
I1
aI2
aaa(lp1105
I1
aL0L
aI2
aF0.98051948051948046
aF1
aI123
a(lp1106
I2
aaa(lp1107
I1
aL2L
aI1
aF0.33119658119658119
aF0.33333333333333331
aI123
a(lp1108
I1
aaa(lp1109
I1
aL0L
aI3
aF0.95614035087719307
aF1
aI123
a(lp1110
I3
aaa(lp1111
I0
aL0L
aI0
aI1
aI1
aI1
a(lp1112
aa(lp1113
I0
aL0L
aI0
aI1
aI1
aI1
a(lp1114
aa(lp1115
I1
aL0L
aI1
aF0.99358974358974361
aF1
aI123
a(lp1116
I1
aaa(lp1117
I1
aL1L
aI1
aF0.49679487179487181
aF0.5
aI123
a(lp1118
I1
aaa(lp1119
I1
aL0L
aI2
aF0.98101265822784811
aF1
aI123
a(lp1120
I2
aaa(lp1121
I1
aL0L
aI1
aF0.99358974358974361
aF1
aI123
a(lp1122
I1
aaa(lp1123
I1
aL1L
aI1
aF0.49671052631578944
aF0.5
aI123
a(lp1124
I1
aaa(lp1125
I0
aL0L
aI0
aI1
aI1
aI1
a(lp1126
aa(lp1127
I1
aL1L
aI2
aF0.47727272727272729
aF0.5
aI123
a(lp1128
I2
aaa(lp1129
I43
aL14L
aI2
aF0.4771704903283851
aF0.75438596491228072
aI123
a(lp1130
I2
aI6
aI7
aI8
aI9
aI10
aI11
aI12
aI13
aI14
aI15
aI17
aI18
aI19
aI20
aI21
aI22
aI23
aI24
aI25
aI26
aI28
aI30
aI31
aI33
aI34
aI35
aI36
aI38
aI39
aI40
aI42
aI43
aI45
aI46
aI48
aI49
aI50
aI51
aI52
aI53
aI54
aI55
aaa(lp1131
I13
aL20L
aI1
aF0.30167055167055168
aF0.39393939393939392
aI123
a(lp1132
I1
aI2
aI5
aI9
aI13
aI14
aI15
aI20
aI21
aI25
aI34
aI40
aI45
aaa(lp1133
I1
aL1L
aI33
aF0.28896103896103892
aF0.5
aI123
a(lp1134
I33
aaa(lp1135
I1
aL0L
aI1
aF0.99367088607594944
aF1
aI123
a(lp1136
I1
aaa(lp1137
I1
aL1L
aI1
aF0.49671052631578944
aF0.5
aI123
a(lp1138
I1
aaa(lp1139
I1
aL0L
aI1
aF0.9933333333333334
aF1
aI123
a(lp1140
I1
aaa(lp1141
I1
aL0L
aI1
aF0.98484848484848486
aF1
aI123
a(lp1142
I1
aaa(lp1143
I1
aL2L
aI3
aF0.32547169811320753
aF0.33333333333333331
aI123
a(lp1144
I3
aaa(lp1145
I1
aL0L
aI1
aF0.99350649350649345
aF1
aI123
a(lp1146
I1
aaa(lp1147
I1
aL0L
aI1
aF0.99019607843137247
aF1
aI123
a(lp1148
I1
aaa(lp1149
I0
aL0L
aI0
aI1
aI1
aI1
a(lp1150
aa(lp1151
I1
aL0L
aI1
aF0.99350649350649345
aF1
aI123
a(lp1152
I1
aaa(lp1153
I0
aL0L
aI0
aI1
aI1
aI1
a(lp1154
aa(lp1155
I0
aL1L
aI0
aF0
aF0
aI123
a(lp1156
aa(lp1157
I1
aL0L
aI1
aF0.99358974358974361
aF1
aI123
a(lp1158
I1
aaa(lp1159
I2
aL0L
aI1
aF0.82051282051282048
aF1
aI123
a(lp1160
I1
aI28
aaa(lp1161
I11
aL4L
aI1
aF0.50384615384615383
aF0.73333333333333328
aI123
a(lp1162
I1
aI2
aI12
aI17
aI20
aI23
aI25
aI27
aI42
aI50
aI55
aaa(lp1163
I15
aL0L
aI1
aF0.90384615384615385
aF1
aI123
a(lp1164
I1
aI2
aI3
aI4
aI5
aI6
aI7
aI8
aI9
aI10
aI11
aI12
aI13
aI14
aI15
aaa(lp1165
I51
aL21L
aI1
aF0.45481601731601734
aF0.70833333333333337
aI123
a(lp1166
I1
aI2
aI3
aI4
aI5
aI6
aI7
aI8
aI9
aI10
aI11
aI12
aI13
aI14
aI15
aI18
aI19
aI20
aI22
aI23
aI24
aI25
aI26
aI27
aI28
aI29
aI30
aI31
aI32
aI33
aI34
aI35
aI36
aI37
aI38
aI39
aI40
aI41
aI42
aI43
aI44
aI45
aI46
aI47
aI48
aI49
aI50
aI51
aI52
aI53
aI54
aaa(lp1167
I52
aL19L
aI1
aF0.49242957746478871
aF0.73239436619718312
aI123
a(lp1168
I1
aI2
aI3
aI4
aI5
aI6
aI7
aI8
aI9
aI10
aI11
aI12
aI13
aI14
aI15
aI16
aI17
aI18
aI19
aI20
aI21
aI22
aI23
aI24
aI25
aI26
aI27
aI28
aI29
aI30
aI31
aI32
aI33
aI34
aI35
aI36
aI37
aI38
aI39
aI40
aI41
aI43
aI44
aI45
aI46
aI47
aI48
aI49
aI50
aI51
aI52
aI53
aaa(lp1169
I42
aL26L
aI2
aF0.4143323996265173
aF0.61764705882352944
aI123
a(lp1170
I2
aI3
aI9
aI11
aI14
aI17
aI21
aI22
aI23
aI27
aI29
aI30
aI31
aI33
aI39
aI40
aI41
aI42
aI43
aI44
aI45
aI46
aI47
aI48
aI49
aI50
aI51
aI52
aI53
aI54
aI55
aI56
aI57
aI59
aI60
aI62
aI63
aI65
aI66
aI67
aI68
aI69
aaa(lp1171
I63
aL59L
aI1
aF0.37209364620165009
aF0.51639344262295084
aI123
a(lp1172
I1
aI2
aI3
aI4
aI5
aI6
aI7
aI8
aI9
aI10
aI11
aI12
aI13
aI14
aI15
aI16
aI17
aI20
aI21
aI22
aI23
aI24
aI39
aI41
aI42
aI43
aI44
aI45
aI46
aI47
aI48
aI49
aI50
aI51
aI52
aI53
aI54
aI55
aI56
aI57
aI58
aI59
aI60
aI61
aI62
aI63
aI64
aI65
aI66
aI67
aI68
aI69
aI70
aI71
aI72
aI73
aI74
aI75
aI76
aI77
aI79
aI80
aI81
aaa(lp1173
I56
aL24L
aI1
aF0.47209302325581387
aF0.69999999999999996
aI123
a(lp1174
I1
aI2
aI3
aI4
aI5
aI6
aI7
aI8
aI9
aI10
aI11
aI12
aI13
aI14
aI15
aI16
aI17
aI18
aI19
aI20
aI21
aI22
aI23
aI24
aI25
aI26
aI27
aI28
aI29
aI30
aI31
aI32
aI33
aI34
aI35
aI36
aI37
aI38
aI39
aI40
aI41
aI42
aI43
aI44
aI45
aI46
aI47
aI48
aI49
aI50
aI51
aI52
aI53
aI54
aI55
aI56
aaa(lp1175
I171
aL130L
aI1
aF0.3993308689345374
aF0.56810631229235875
aI123
a(lp1176
I1
aI6
aI7
aI8
aI11
aI14
aI15
aI16
aI17
aI18
aI19
aI20
aI21
aI22
aI23
aI24
aI25
aI26
aI34
aI41
aI42
aI43
aI44
aI45
aI46
aI47
aI48
aI49
aI50
aI51
aI52
aI53
aI54
aI55
aI56
aI57
aI58
aI59
aI60
aI61
aI62
aI63
aI64
aI65
aI66
aI67
aI68
aI69
aI70
aI71
aI72
aI73
aI74
aI75
aI76
aI77
aI78
aI79
aI80
aI81
aI82
aI83
aI84
aI85
aI86
aI87
aI88
aI89
aI90
aI91
aI92
aI93
aI94
aI95
aI96
aI97
aI98
aI99
aI100
aI101
aI102
aI103
aI104
aI105
aI106
aI107
aI109
aI110
aI111
aI112
aI113
aI114
aI115
aI116
aI117
aI118
aI119
aI120
aI121
aI122
aI123
aI124
aI125
aI126
aI127
aI128
aI129
aI130
aI131
aI132
aI133
aI134
aI135
aI136
aI137
aI138
aI139
aI140
aI141
aI142
aI143
aI144
aI145
aI146
aI147
aI148
aI149
aI150
aI151
aI152
aI153
aI154
aI155
aI156
aI157
aI158
aI159
aI160
aI161
aI162
aI163
aI164
aI165
aI166
aI167
aI168
aI169
aI170
aI171
aI172
aI173
aI174
aI175
aI176
aI177
aI178
aI179
aI180
aI181
aI182
aI183
aI184
aI185
aI186
aI187
aI188
aI189
aI190
aI191
aI192
aI193
aaa(lp1177
I73
aL37L
aI1
aF0.45835901386748845
aF0.66363636363636369
aI123
a(lp1178
I1
aI2
aI3
aI4
aI5
aI6
aI7
aI8
aI9
aI10
aI11
aI12
aI13
aI14
aI15
aI16
aI17
aI18
aI19
aI20
aI21
aI22
aI23
aI24
aI25
aI26
aI27
aI28
aI29
aI30
aI31
aI32
aI33
aI34
aI35
aI36
aI37
aI38
aI39
aI40
aI41
aI42
aI43
aI44
aI45
aI46
aI47
aI48
aI49
aI50
aI51
aI52
aI53
aI54
aI55
aI56
aI57
aI58
aI59
aI60
aI61
aI62
aI63
aI64
aI65
aI66
aI67
aI68
aI69
aI70
aI71
aI72
aI73
aaa(lp1179
I14
aL2L
aI1
aF0.73284313725490191
aF0.875
aI123
a(lp1180
I1
aI2
aI3
aI5
aI6
aI7
aI8
aI9
aI10
aI11
aI13
aI15
aI16
aI17
aaa(lp1181
I15
aL30L
aI1
aF0.30128205128205127
aF0.33333333333333331
aI123
a(lp1182
I1
aI2
aI3
aI4
aI5
aI6
aI7
aI8
aI9
aI10
aI11
aI12
aI13
aI14
aI15
aaa(lp1183
I3
aL26L
aI24
aF0.056984219754529518
aF0.10344827586206896
aI123
a(lp1184
I24
aI28
aI29
aaa(lp1185
I19
aL7L
aI2
aF0.52378542510121451
aF0.73076923076923073
aI123
a(lp1186
I2
aI3
aI4
aI5
aI6
aI7
aI8
aI9
aI10
aI11
aI12
aI13
aI14
aI15
aI17
aI18
aI19
aI20
aI21
aaa(lp1187
I43
aL26L
aI1
aF0.44230769230769235
aF0.62318840579710144
aI123
a(lp1188
I1
aI2
aI3
aI4
aI6
aI7
aI8
aI9
aI10
aI11
aI12
aI13
aI14
aI15
aI16
aI17
aI18
aI19
aI20
aI21
aI22
aI23
aI24
aI25
aI26
aI27
aI28
aI29
aI30
aI31
aI32
aI33
aI34
aI35
aI37
aI38
aI39
aI40
aI41
aI42
aI43
aI44
aI46
aaa(lp1189
I13
aL8L
aI11
aF0.35482804232804233
aF0.61904761904761907
aI123
a(lp1190
I11
aI17
aI25
aI26
aI30
aI33
aI34
aI35
aI37
aI38
aI39
aI40
aI41
aaa(lp1191
I78
aL59L
aI1
aF0.43311987819622944
aF0.56934306569343063
aI123
a(lp1192
I1
aI2
aI3
aI4
aI5
aI6
aI7
aI8
aI9
aI10
aI11
aI12
aI13
aI14
aI15
aI16
aI17
aI18
aI19
aI20
aI21
aI22
aI23
aI24
aI25
aI26
aI27
aI28
aI29
aI30
aI31
aI32
aI33
aI34
aI35
aI36
aI37
aI38
aI39
aI40
aI41
aI42
aI43
aI44
aI45
aI46
aI47
aI48
aI49
aI50
aI51
aI52
aI53
aI54
aI55
aI56
aI57
aI58
aI59
aI60
aI61
aI62
aI63
aI64
aI65
aI66
aI67
aI68
aI69
aI70
aI71
aI72
aI73
aI74
aI75
aI76
aI77
aI78
aaa(lp1193
I148
aL44L
aI1
aF0.58813729296066253
aF0.77083333333333337
aI123
a(lp1194
I1
aI2
aI3
aI4
aI5
aI6
aI7
aI8
aI9
aI10
aI11
aI12
aI13
aI14
aI15
aI16
aI17
aI18
aI19
aI20
aI21
aI22
aI23
aI24
aI25
aI26
aI27
aI28
aI29
aI30
aI31
aI32
aI33
aI34
aI35
aI36
aI37
aI38
aI40
aI41
aI42
aI43
aI44
aI46
aI47
aI48
aI49
aI50
aI51
aI52
aI53
aI54
aI55
aI56
aI57
aI58
aI59
aI60
aI61
aI62
aI63
aI64
aI65
aI66
aI67
aI68
aI69
aI70
aI71
aI72
aI73
aI74
aI75
aI76
aI77
aI78
aI79
aI80
aI81
aI82
aI83
aI84
aI85
aI86
aI87
aI88
aI89
aI90
aI91
aI92
aI93
aI94
aI95
aI96
aI97
aI98
aI99
aI100
aI101
aI102
aI103
aI104
aI105
aI106
aI107
aI108
aI109
aI110
aI112
aI113
aI114
aI115
aI116
aI117
aI118
aI119
aI120
aI121
aI122
aI123
aI124
aI125
aI126
aI127
aI128
aI129
aI134
aI135
aI136
aI137
aI138
aI139
aI140
aI141
aI142
aI143
aI144
aI145
aI146
aI147
aI148
aI149
aI150
aI151
aI152
aI153
aI154
aI155
aaa(lp1195
I0
aL1L
aI0
aF0
aF0
aI123
a(lp1196
aa(lp1197
I77
aL15L
aI1
aF0.62785498073747936
aF0.83695652173913049
aI123
a(lp1198
I1
aI2
aI4
aI5
aI6
aI7
aI8
aI9
aI10
aI11
aI12
aI13
aI14
aI15
aI16
aI17
aI18
aI19
aI20
aI21
aI22
aI23
aI24
aI25
aI26
aI27
aI28
aI29
aI30
aI31
aI32
aI33
aI34
aI35
aI36
aI37
aI38
aI39
aI40
aI41
aI42
aI43
aI44
aI45
aI46
aI47
aI48
aI49
aI50
aI51
aI52
aI53
aI54
aI55
aI56
aI57
aI58
aI59
aI60
aI61
aI62
aI63
aI64
aI65
aI66
aI67
aI68
aI69
aI70
aI71
aI72
aI73
aI74
aI75
aI76
aI77
aI78
aaa(lp1199
I14
aL2L
aI2
aF0.77112676056338025
aF0.875
aI123
a(lp1200
I2
aI3
aI4
aI5
aI6
aI7
aI8
aI9
aI10
aI11
aI12
aI15
aI16
aI17
aaa(lp1201
I7
aL4L
aI2
aF0.5565656565656566
aF0.63636363636363635
aI123
a(lp1202
I2
aI3
aI5
aI6
aI8
aI9
aI10
aaa(lp1203
I99
aL75L
aI24
aF0.3870078013202235
aF0.56896551724137934
aI123
a(lp1204
I24
aI27
aI28
aI29
aI31
aI32
aI33
aI34
aI35
aI36
aI37
aI38
aI39
aI40
aI41
aI42
aI43
aI44
aI45
aI46
aI47
aI48
aI49
aI50
aI51
aI52
aI53
aI54
aI55
aI56
aI57
aI58
aI59
aI60
aI61
aI62
aI64
aI65
aI66
aI67
aI68
aI69
aI70
aI71
aI72
aI73
aI74
aI75
aI76
aI77
aI84
aI85
aI86
aI87
aI89
aI90
aI91
aI92
aI93
aI94
aI95
aI96
aI97
aI98
aI99
aI100
aI101
aI102
aI103
aI104
aI105
aI106
aI107
aI108
aI109
aI110
aI111
aI112
aI113
aI114
aI115
aI116
aI117
aI118
aI119
aI120
aI121
aI123
aI124
aI125
aI126
aI127
aI128
aI129
aI130
aI131
aI132
aI133
aI135
aaa(lp1205
I168
aL119L
aI1
aF0.43051721797366388
aF0.58536585365853655
aI123
a(lp1206
I1
aI2
aI3
aI4
aI5
aI6
aI7
aI8
aI9
aI10
aI11
aI12
aI13
aI14
aI15
aI16
aI17
aI18
aI19
aI20
aI21
aI22
aI23
aI24
aI25
aI26
aI27
aI28
aI29
aI30
aI31
aI32
aI33
aI34
aI35
aI36
aI37
aI38
aI50
aI51
aI52
aI53
aI54
aI55
aI56
aI57
aI58
aI59
aI60
aI61
aI62
aI63
aI64
aI65
aI66
aI67
aI68
aI69
aI70
aI71
aI72
aI73
aI74
aI75
aI76
aI77
aI78
aI79
aI80
aI81
aI82
aI83
aI84
aI85
aI86
aI87
aI88
aI89
aI90
aI91
aI92
aI93
aI94
aI95
aI96
aI97
aI98
aI99
aI100
aI101
aI102
aI103
aI104
aI105
aI106
aI107
aI109
aI110
aI111
aI112
aI113
aI114
aI116
aI123
aI138
aI139
aI140
aI141
aI142
aI143
aI144
aI145
aI146
aI147
aI150
aI151
aI152
aI153
aI154
aI155
aI156
aI157
aI158
aI159
aI160
aI161
aI162
aI163
aI164
aI165
aI166
aI167
aI168
aI169
aI170
aI171
aI172
aI173
aI174
aI175
aI176
aI177
aI178
aI179
aI180
aI181
aI182
aI183
aI185
aI186
aI187
aI188
aI190
aI191
aI192
aI193
aI194
aI195
aI196
aI197
aI198
aI199
aI200
aI201
aI202
aI203
aI204
aI205
aaa(lp1207
I175
aL106L
aI1
aF0.46707461736539074
aF0.62277580071174377
aI123
a(lp1208
I1
aI2
aI5
aI6
aI9
aI10
aI11
aI12
aI13
aI14
aI15
aI16
aI17
aI18
aI19
aI20
aI21
aI22
aI23
aI24
aI25
aI26
aI27
aI28
aI29
aI30
aI31
aI32
aI33
aI34
aI35
aI36
aI37
aI38
aI39
aI40
aI41
aI42
aI43
aI44
aI45
aI46
aI47
aI48
aI49
aI50
aI51
aI52
aI53
aI54
aI55
aI56
aI57
aI58
aI59
aI60
aI61
aI62
aI63
aI64
aI65
aI66
aI67
aI68
aI69
aI70
aI71
aI72
aI73
aI74
aI75
aI76
aI77
aI78
aI79
aI80
aI81
aI82
aI83
aI84
aI85
aI86
aI87
aI88
aI89
aI90
aI91
aI92
aI93
aI94
aI95
aI96
aI97
aI98
aI99
aI100
aI101
aI102
aI103
aI104
aI105
aI106
aI107
aI108
aI109
aI110
aI111
aI112
aI113
aI114
aI115
aI116
aI117
aI118
aI119
aI120
aI121
aI122
aI123
aI124
aI125
aI126
aI127
aI128
aI129
aI130
aI131
aI132
aI133
aI134
aI135
aI136
aI137
aI138
aI139
aI140
aI141
aI142
aI143
aI144
aI145
aI146
aI147
aI148
aI149
aI150
aI151
aI152
aI153
aI154
aI155
aI156
aI161
aI162
aI165
aI166
aI167
aI168
aI169
aI170
aI171
aI172
aI173
aI174
aI175
aI177
aI178
aI179
aI180
aI181
aI182
aI183
aI184
aI185
aI186
aaa(lp1209
I30
aL59L
aI17
aF0.21136622699886012
aF0.33707865168539325
aI123
a(lp1210
I17
aI18
aI54
aI68
aI69
aI70
aI71
aI72
aI73
aI74
aI75
aI76
aI77
aI78
aI79
aI80
aI81
aI82
aI83
aI84
aI85
aI86
aI87
aI91
aI93
aI96
aI101
aI102
aI104
aI105
aaa(lp1211
I2
aL3L
aI1
aF0.39487179487179491
aF0.40000000000000002
aI123
a(lp1212
I1
aI2
aaa(lp1213
I1
aL1L
aI2
aF0.49038461538461536
aF0.5
aI123
a(lp1214
I2
aaa(lp1215
I0
aL1L
aI0
aF0
aF0
aI123
a(lp1216
aa(lp1217
I6
aL0L
aI1
aF0.70440251572327051
aF1
aI123
a(lp1218
I1
aI23
aI39
aI40
aI43
aI45
aaa(lp1219
I4
aL0L
aI1
aF0.96428571428571419
aF1
aI123
a(lp1220
I1
aI3
aI4
aI5
aaa(lp1221
I5
aL0L
aI4
aF0.856578947368421
aF1
aI123
a(lp1222
I4
aI5
aI6
aI7
aI35
aaa(lp1223
I3
aL0L
aI2
aF0.90925925925925921
aF1
aI123
a(lp1224
I2
aI8
aI16
aaa(lp1225
I1
aL0L
aI3
aF0.96835443037974689
aF1
aI123
a(lp1226
I3
aaa(lp1227
I3
aL0L
aI1
aF0.80921052631578938
aF1
aI123
a(lp1228
I1
aI19
aI25
aaa(lp1229
I2
aL0L
aI3
aF0.79113924050632911
aF1
aI123
a(lp1230
I3
aI31
aaa(lp1231
I4
aL5L
aI1
aF0.36187563710499487
aF0.44444444444444442
aI123
a(lp1232
I1
aI2
aI15
aI65
aaa(lp1233
I4
aL0L
aI2
aF0.79870129870129858
aF1
aI123
a(lp1234
I2
aI5
aI15
aI42
aaa(lp1235
I5
aL5L
aI2
aF0.40949367088607597
aF0.5
aI123
a(lp1236
I2
aI3
aI5
aI30
aI34
aaa(lp1237
I3
aL0L
aI1
aF0.95085470085470081
aF1
aI123
a(lp1238
I1
aI2
aI10
aaa(lp1239
I3
aL0L
aI1
aF0.98076923076923073
aF1
aI123
a(lp1240
I1
aI2
aI3
aaa(lp1241
I3
aL0L
aI1
aF0.98051948051948046
aF1
aI123
a(lp1242
I1
aI2
aI3
aaa(lp1243
I3
aL0L
aI1
aF0.98076923076923073
aF1
aI123
a(lp1244
I1
aI2
aI3
aaa(lp1245
I3
aL4L
aI1
aF0.33823529411764702
aF0.42857142857142855
aI123
a(lp1246
I1
aI2
aI20
aaa(lp1247
I2
aL0L
aI1
aF0.98717948717948711
aF1
aI123
a(lp1248
I1
aI2
aaa(lp1249
I2
aL0L
aI1
aF0.98717948717948711
aF1
aI123
a(lp1250
I1
aI2
aaa(lp1251
I2
aL0L
aI1
aF0.98717948717948711
aF1
aI123
a(lp1252
I1
aI2
aaa(lp1253
I20
aL0L
aI1
aF0.83765432098765435
aF1
aI123
a(lp1254
I1
aI2
aI4
aI5
aI6
aI7
aI8
aI9
aI11
aI12
aI14
aI17
aI18
aI19
aI20
aI22
aI23
aI24
aI25
aI26
aaa(lp1255
I67
aL22L
aI1
aF0.55553154710458075
aF0.7528089887640449
aI123
a(lp1256
I1
aI2
aI3
aI4
aI5
aI6
aI7
aI8
aI9
aI10
aI11
aI12
aI13
aI14
aI15
aI16
aI17
aI18
aI19
aI20
aI21
aI22
aI23
aI24
aI25
aI26
aI27
aI28
aI29
aI30
aI31
aI32
aI33
aI34
aI35
aI36
aI37
aI38
aI39
aI40
aI41
aI42
aI43
aI44
aI45
aI46
aI47
aI48
aI49
aI50
aI52
aI53
aI54
aI55
aI56
aI57
aI58
aI60
aI61
aI62
aI63
aI64
aI65
aI66
aI67
aI73
aI75
aaa(lp1257
I1
aL2L
aI2
aF0.29999999999999999
aF0.33333333333333331
aI123
a(lp1258
I2
aaa(lp1259
I13
aL9L
aI1
aF0.44758812615955479
aF0.59090909090909094
aI123
a(lp1260
I1
aI2
aI3
aI4
aI5
aI6
aI7
aI8
aI22
aI23
aI25
aI27
aI28
aaa(lp1261
I6
aL0L
aI1
aF0.93902439024390238
aF1
aI123
a(lp1262
I1
aI2
aI3
aI4
aI5
aI18
aaa(lp1263
I4
aL0L
aI1
aF0.97499999999999998
aF1
aI123
a(lp1264
I1
aI2
aI3
aI4
aaa(lp1265
I11
aL0L
aI1
aF0.93678160919540232
aF1
aI123
a(lp1266
I1
aI2
aI3
aI4
aI5
aI6
aI7
aI8
aI9
aI10
aI11
aaa(lp1267
I3
aL0L
aI1
aF0.98101265822784811
aF1
aI123
a(lp1268
I1
aI2
aI3
aaa(lp1269
I2
aL0L
aI1
aF0.98630136986301375
aF1
aI123
a(lp1270
I1
aI2
aaa(lp1271
I3
aL0L
aI1
aF0.9821428571428571
aF1
aI123
a(lp1272
I1
aI2
aI3
aaa(lp1273
I3
aL4L
aI6
aF0.31302521008403356
aF0.42857142857142855
aI123
a(lp1274
I6
aI7
aI16
aaa(lp1275
I3
aL0L
aI1
aF0.98101265822784811
aF1
aI123
a(lp1276
I1
aI2
aI3
aaa(lp1277
I3
aL0L
aI1
aF0.98101265822784811
aF1
aI123
a(lp1278
I1
aI2
aI3
aaa(lp1279
I3
aL0L
aI1
aF0.98101265822784811
aF1
aI123
a(lp1280
I1
aI2
aI3
aaa(lp1281
I4
aL0L
aI1
aF0.875
aF1
aI123
a(lp1282
I1
aI2
aI3
aI35
aaa(lp1283
I3
aL0L
aI1
aF0.97111111111111115
aF1
aI123
a(lp1284
I1
aI3
aI4
aaa(lp1285
I3
aL0L
aI1
aF0.98192771084337349
aF1
aI123
a(lp1286
I1
aI2
aI3
aaa(lp1287
I3
aL4L
aI6
aF0.3172268907563025
aF0.42857142857142855
aI123
a(lp1288
I6
aI7
aI15
aaa(lp1289
I3
aL0L
aI1
aF0.98076923076923073
aF1
aI123
a(lp1290
I1
aI2
aI3
aaa(lp1291
I7
aL0L
aI1
aF0.95783132530120474
aF1
aI123
a(lp1292
I1
aI2
aI3
aI4
aI5
aI6
aI7
aaa(lp1293
I7
aL0L
aI1
aF0.95783132530120474
aF1
aI123
a(lp1294
I1
aI2
aI3
aI4
aI5
aI6
aI7
aaa(lp1295
I3
aL0L
aI1
aF0.98101265822784811
aF1
aI123
a(lp1296
I1
aI2
aI3
aaa(lp1297
I3
aL0L
aI1
aF0.97887323943661975
aF1
aI123
a(lp1298
I1
aI2
aI3
aaa(lp1299
I5
aL0L
aI2
aF0.96153846153846156
aF1
aI123
a(lp1300
I2
aI3
aI4
aI5
aI6
aaa(lp1301
I5
aL0L
aI1
aF0.85779816513761464
aF1
aI123
a(lp1302
I1
aI2
aI4
aI5
aI68
aaa(lp1303
I6
aL0L
aI2
aF0.95348837209302328
aF1
aI123
a(lp1304
I2
aI3
aI4
aI5
aI6
aI7
aaa(lp1305
I2
aL0L
aI1
aF0.98734177215189878
aF1
aI123
a(lp1306
I1
aI2
aaa(lp1307
I6
aL3L
aI1
aF0.63795255930087391
aF0.66666666666666663
aI123
a(lp1308
I1
aI3
aI4
aI5
aI6
aI7
aaa(lp1309
I3
aL0L
aI1
aF0.9770833333333333
aF1
aI123
a(lp1310
I1
aI2
aI4
aaa(lp1311
I3
aL0L
aI1
aF0.9375
aF1
aI123
a(lp1312
I1
aI2
aI12
aaa(lp1313
I2
aL0L
aI1
aF0.98823529411764699
aF1
aI123
a(lp1314
I1
aI2
aaa(lp1315
I12
aL7L
aI2
aF0.47233468286099861
aF0.63157894736842102
aI123
a(lp1316
I2
aI3
aI4
aI5
aI6
aI7
aI8
aI10
aI14
aI20
aI21
aI24
aaa(lp1317
I3
aL0L
aI1
aF0.93958333333333333
aF1
aI123
a(lp1318
I1
aI2
aI13
aaa(lp1319
I2
aL1L
aI1
aF0.65833333333333333
aF0.66666666666666663
aI123
a(lp1320
I1
aI2
aaa(lp1321
I2
aL0L
aI2
aF0.96913580246913589
aF1
aI123
a(lp1322
I2
aI4
aaa(lp1323
I2
aL0L
aI1
aF0.99079754601226988
aF1
aI123
a(lp1324
I1
aI3
aaa(lp1325
I0
aL0L
aI0
aI1
aI1
aI1
a(lp1326
aa(lp1327
I0
aL0L
aI0
aI1
aI1
aI1
a(lp1328
aa(lp1329
I4
aL1L
aI1
aF0.50526315789473686
aF0.80000000000000004
aI123
a(lp1330
I1
aI17
aI18
aI22
aaa(lp1331
I0
aL0L
aI0
aI1
aI1
aI1
a(lp1332
aa(lp1333
I0
aL0L
aI0
aI1
aI1
aI1
a(lp1334
aa(lp1335
I0
aL0L
aI0
aI1
aI1
aI1
a(lp1336
aa(lp1337
I0
aL0L
aI0
aI1
aI1
aI1
a(lp1338
aa(lp1339
I0
aL0L
aI0
aI1
aI1
aI1
a(lp1340
aa(lp1341
I0
aL0L
aI0
aI1
aI1
aI1
a(lp1342
aa(lp1343
I9
aL0L
aI1
aF0.90000000000000002
aF1
aI123
a(lp1344
I1
aI2
aI3
aI5
aI8
aI9
aI11
aI12
aI39
aaa(lp1345
I7
aL1L
aI2
aF0.83124999999999993
aF0.875
aI123
a(lp1346
I2
aI3
aI4
aI5
aI6
aI7
aI8
aaa(lp1347
I3
aL1L
aI7
aF0.614247311827957
aF0.75
aI123
a(lp1348
I7
aI10
aI35
aaa(lp1349
I5
aL0L
aI1
aF0.93977272727272732
aF1
aI123
a(lp1350
I1
aI3
aI4
aI5
aI16
aaa(lp1351
I3
aL1L
aI1
aF0.73382352941176465
aF0.75
aI123
a(lp1352
I1
aI2
aI4
aaa(lp1353
I1
aL0L
aI1
aF0.99382716049382713
aF1
aI123
a(lp1354
I1
aaa(lp1355
I1
aL0L
aI1
aF0.99358974358974361
aF1
aI123
a(lp1356
I1
aaa(lp1357
I3
aL0L
aI1
aF0.9831460674157303
aF1
aI123
a(lp1358
I1
aI2
aI3
aaa(lp1359
I1
aL0L
aI1
aF0.99390243902439024
aF1
aI123
a(lp1360
I1
aaa(lp1361
I2
aL0L
aI1
aF0.92073170731707321
aF1
aI123
a(lp1362
I1
aI13
aaa(lp1363
I8
aL0L
aI1
aF0.81960227272727282
aF1
aI123
a(lp1364
I1
aI2
aI5
aI6
aI7
aI27
aI29
aI54
aaa(lp1365
I6
aL0L
aI1
aF0.95299145299145294
aF1
aI123
a(lp1366
I1
aI2
aI3
aI4
aI7
aI8
aaa(lp1367
I2
aL0L
aI1
aF0.98765432098765438
aF1
aI123
a(lp1368
I1
aI2
aaa(lp1369
I0
aL0L
aI0
aI1
aI1
aI1
a(lp1370
aa(lp1371
I0
aL1L
aI0
aF0
aF0
aI123
a(lp1372
aa(lp1373
I2
aL0L
aI1
aF0.98780487804878048
aF1
aI123
a(lp1374
I1
aI2
aaa(lp1375
I2
aL0L
aI1
aF0.98780487804878048
aF1
aI123
a(lp1376
I1
aI2
aaa(lp1377
I13
aL3L
aI1
aF0.58117378048780488
aF0.8125
aI123
a(lp1378
I1
aI2
aI10
aI13
aI16
aI18
aI19
aI20
aI23
aI38
aI47
aI51
aI52
aaa(lp1379
I15
aL0L
aI1
aF0.90740740740740744
aF1
aI123
a(lp1380
I1
aI2
aI3
aI4
aI5
aI6
aI7
aI8
aI9
aI10
aI11
aI12
aI13
aI14
aI15
aaa(lp1381
I47
aL35L
aI1
aF0.4089083878643664
aF0.57317073170731703
aI123
a(lp1382
I1
aI2
aI3
aI4
aI5
aI6
aI7
aI8
aI9
aI10
aI11
aI12
aI13
aI14
aI15
aI16
aI17
aI18
aI19
aI20
aI21
aI22
aI23
aI24
aI25
aI26
aI27
aI28
aI29
aI30
aI31
aI32
aI33
aI34
aI35
aI36
aI37
aI38
aI39
aI40
aI41
aI42
aI43
aI44
aI45
aI46
aI47
aaa(lp1383
I1
aL1L
aI7
aF0.37500000000000006
aF0.5
aI123
a(lp1384
I7
aaa(lp1385
I14
aL0L
aI1
aF0.875
aF1
aI123
a(lp1386
I1
aI2
aI3
aI4
aI5
aI6
aI7
aI8
aI9
aI10
aI11
aI12
aI13
aI14
aaa(lp1387
I0
aL1L
aI0
aF0
aF0
aI123
a(lp1388
aa(lp1389
I6
aL1L
aI1
aF0.82993197278911557
aF0.8571428571428571
aI123
a(lp1390
I1
aI2
aI3
aI4
aI5
aI20
aaa(lp1391
I2
aL0L
aI1
aF0.98717948717948711
aF1
aI123
a(lp1392
I1
aI2
aaa(lp1393
I4
aL1L
aI1
aF0.7763440860215054
aF0.80000000000000004
aI123
a(lp1394
I1
aI3
aI4
aI5
aaa(lp1395
I0
aL0L
aI0
aI1
aI1
aI1
a(lp1396
aa(lp1397
I4
aL0L
aI1
aF0.71428571428571419
aF1
aI123
a(lp1398
I1
aI2
aI3
aI4
aaa(lp1399
I0
aL0L
aI0
aI1
aI1
aI1
a(lp1400
aa(lp1401
I21
aL13L
aI8
aF0.40190100430416076
aF0.61764705882352944
aI123
a(lp1402
I8
aI9
aI11
aI13
aI14
aI17
aI18
aI20
aI27
aI28
aI29
aI31
aI32
aI35
aI40
aI41
aI43
aI46
aI49
aI50
aI51
aaa(lp1403
I5
aL0L
aI1
aF0.97093023255813959
aF1
aI123
a(lp1404
I1
aI2
aI3
aI4
aI5
aaa(lp1405
I1
aL0L
aI1
aF0.99473684210526314
aF1
aI123
a(lp1406
I1
aaa(lp1407
I3
aL1L
aI1
aF0.73660714285714279
aF0.75
aI123
a(lp1408
I1
aI2
aI3
aaa(lp1409
I9
aL0L
aI1
aF0.94999999999999996
aF1
aI123
a(lp1410
I1
aI2
aI3
aI4
aI5
aI6
aI7
aI8
aI9
aaa(lp1411
I8
aL0L
aI1
aF0.9297752808988764
aF1
aI123
a(lp1412
I1
aI2
aI3
aI4
aI6
aI7
aI8
aI23
aaa(lp1413
I0
aL0L
aI0
aI1
aI1
aI1
a(lp1414
aa(lp1415
I1
aL1L
aI49
aF0.20426829268292684
aF0.5
aI123
a(lp1416
I49
aaa(lp1417
I6
aL1L
aI1
aF0.76190476190476186
aF0.8571428571428571
aI123
a(lp1418
I1
aI2
aI3
aI6
aI21
aI30
aaa(lp1419
I0
aL1L
aI0
aF0
aF0
aI123
a(lp1420
aa(lp1421
I0
aL0L
aI0
aI1
aI1
aI1
a(lp1422
aa(lp1423
I0
aL1L
aI0
aF0
aF0
aI123
a(lp1424
aa(lp1425
I5
aL1L
aI1
aF0.80686274509803924
aF0.83333333333333337
aI123
a(lp1426
I1
aI2
aI3
aI4
aI6
aaa(lp1427
I2
aL1L
aI1
aF0.65447154471544711
aF0.66666666666666663
aI123
a(lp1428
I1
aI3
aaa(lp1429
I0
aL0L
aI0
aI1
aI1
aI1
a(lp1430
aa(lp1431
I2
aL0L
aI2
aF0.97058823529411764
aF1
aI123
a(lp1432
I2
aI4
aaa(lp1433
I4
aL0L
aI3
aF0.93814432989690721
aF1
aI123
a(lp1434
I3
aI4
aI5
aI14
aaasS'env'
p1435
S'paintcontrol'
p1436
sS'action_size'
p1437
I1
sS'hidden_size'
p1438
S'12'
p1439
sS'ttf'
p1440
(lp1441
I0
aI0
aI0
aI0
aI0
aI0
aI0
aI0
aI0
aI0
aI33
aI53
aI0
aI0
aI0
aI0
aI25
aI9
aI0
aI0
aI0
aI0
aI0
aI0
aI0
aI0
aI0
aI0
aI0
aI23
aI28
aI47
aI2
aI1
aI1
aI1
aI0
aI46
aI0
aI1
aI57
aI2
aI0
aI0
aI1
aI0
aI0
aI0
aI0
aI36
aI5
aI1
aI0
aI0
aI0
aI0
aI0
aI0
aI0
aI0
aI0
aI1
aI1
aI1
aI1
aI3
aI0
aI6
aI0
aI0
aI0
aI0
aI0
aI0
aI0
aI0
aI0
aI1
aI0
aI18
aI0
aI0
aI1
aI1
aI1
aI1
aI0
aI0
aI2
aI5
aI0
aI0
aI0
aI40
aI0
aI0
aI0
aI1
aI1
aI2
aI1
aI1
aI1
aI27
aI0
aI0
aI0
aI32
aI18
aI1
aI1
aI0
aI0
aI4
aI0
aI0
aI0
aI0
aI0
aI0
aI0
aI0
aI2
aI1
aI0
aI0
aI0
aI0
aI0
aI5
aI0
aI0
aI0
aI0
aI0
aI0
aI0
aI1
aI1
aI1
aI1
aI2
aI1
aI1
aI2
aI1
aI0
aI0
aI2
aI1
aI1
aI1
aI0
aI33
aI1
aI7
aI6
aI2
aI1
aI1
aI1
aI1
aI2
aI1
aI1
aI1
aI1
aI1
aI1
aI1
aI1
aI16
aI1
aI2
aI1
aI2
aI1
aI11
aI1
aI17
aI1
aI2
aI1
aI1
aI18
aI3
aI1
aI2
aI1
aI3
aI0
aI0
aI1
aI1
aI2
aI1
aI1
aI0
aI2
aI2
aI1
aI33
aI1
aI1
aI1
aI1
aI3
aI1
aI1
aI0
aI1
aI0
aI0
aI1
aI1
aI1
aI1
aI1
aI1
aI2
aI1
aI1
aI1
aI1
aI1
aI1
aI24
aI2
aI1
aI11
aI1
aI1
aI0
aI1
aI2
aI2
aI24
aI1
aI1
aI17
aI1
aI2
aI0
aI1
aI1
aI4
aI2
aI3
aI1
aI3
aI1
aI2
aI2
aI1
aI1
aI1
aI1
aI1
aI1
aI1
aI1
aI1
aI1
aI2
aI1
aI1
aI1
aI1
aI1
aI1
aI1
aI6
aI1
aI1
aI1
aI1
aI1
aI1
aI6
aI1
aI1
aI1
aI1
aI1
aI2
aI1
aI2
aI1
aI1
aI1
aI1
aI1
aI2
aI1
aI1
aI2
aI1
aI0
aI0
aI1
aI0
aI0
aI0
aI0
aI0
aI0
aI1
aI2
aI7
aI1
aI1
aI1
aI1
aI1
aI1
aI1
aI1
aI1
aI1
aI0
aI0
aI1
aI1
aI1
aI1
aI1
aI7
aI1
aI0
aI1
aI1
aI1
aI0
aI1
aI0
aI8
aI1
aI1
aI1
aI1
aI1
aI0
aI49
aI1
aI0
aI0
aI0
aI1
aI1
aI0
aI2
aI3
asS'napfd'
p1442
(lp1443
I1
aI1
aF0
aF0
aI1
aI1
aF0
aF0
aI1
aF0
aF0.32415254237288132
aF0.046296296296296287
aF0
aF0
aI1
aI1
aF0.085858585858585829
aF0.74242424242424243
aI1
aI1
aI1
aI1
aF0
aF0
aI1
aI1
aI1
aI1
aI1
aF0.43750000000000006
aF0.092156862745098045
aF0.064488636363636373
aF0.58318584070796464
aF0.36094771241830065
aF0.40459525258673157
aF0.43291761148904001
aI1
aF0.17782258064516129
aF0
aF0.54809636118598393
aF0.70197044334975378
aF0.94827586206896552
aI1
aI1
aF0.625
aI1
aI1
aI1
aI1
aF0.65533980582524265
aF0.14363557105492589
aF0.76956521739130435
aI1
aI1
aF0
aI1
aI1
aI1
aI1
aI1
aF0
aF0.99295774647887325
aF0.99342105263157887
aF0.99295774647887325
aF0.74479166666666674
aF0.94680851063829785
aF0
aF0.92666666666666675
aI1
aI1
aI1
aI1
aI1
aI1
aI1
aI1
aI1
aF0.98571428571428565
aI1
aF0.7635135135135136
aI1
aI1
aF0.7381640260950606
aF0.45580715850986125
aF0.45580715850986125
aF0.45580715850986125
aI1
aI1
aF0.49013157894736842
aF0.64884868421052633
aI1
aI1
aI1
aF0.46621621621621617
aI1
aI1
aI1
aF0.45824074074074078
aF0.52105263157894732
aF0.42182662538699695
aF0.43996710526315791
aF0.42808845029239762
aF0.43996710526315791
aF0.28431372549019607
aI1
aI1
aI1
aF0.57999999999999996
aF0.76973684210526316
aF0.99342105263157887
aF0.99350649350649345
aI1
aI1
aF0.85897435897435892
aF0
aI1
aI1
aI1
aI1
aI1
aI1
aI1
aF0.45349049707602346
aF0.47944078947368429
aI1
aI1
aI1
aI1
aI1
aF0.40892354342646736
aI1
aI1
aI1
aI1
aI1
aI1
aF0
aF0.49671052631578944
aF0.99305555555555558
aF0.99358974358974361
aF0.87662337662337653
aF0.97972972972972983
aF0.99367088607594944
aF0.49671052631578944
aF0.97916666666666663
aF0.84868421052631571
aI1
aI1
aF0.4380681818181818
aF0.66905901116427435
aF0.7828947368421052
aF0.78000000000000003
aI1
aF0.58333333333333326
aF0.99375000000000002
aF0.69354838709677424
aF0.46381578947368418
aF0.98076923076923073
aF0.9933333333333334
aF0.99342105263157887
aF0.9933333333333334
aF0.96103896103896103
aF0.45736434108527135
aF0.46902777777777777
aF0.60124999999999995
aF0.61403508771929827
aF0.59943714821763594
aF0.5805958747135217
aF0.57542746828461111
aF0.60177133655394521
aF0.6785714285714286
aF0.69822303921568629
aF0.98717948717948711
aF0.98051948051948046
aF0.49679487179487181
aF0.32657657657657652
aF0.65447154471544711
aF0.50694444444444453
aF0.42380952380952375
aF0.78846153846153844
aF0.49675324675324672
aF0.98076923076923073
aF0.99350649350649345
aF0.50632911392405056
aF0.41666666666666669
aF0.85897435897435892
aF0.98717948717948711
aF0.98051948051948046
aF0.33119658119658119
aF0.95614035087719307
aI1
aI1
aF0.99358974358974361
aF0.49679487179487181
aF0.98101265822784811
aF0.99358974358974361
aF0.49671052631578944
aI1
aF0.47727272727272729
aF0.4771704903283851
aF0.30167055167055168
aF0.28896103896103892
aF0.99367088607594944
aF0.49671052631578944
aF0.9933333333333334
aF0.98484848484848486
aF0.32547169811320753
aF0.99350649350649345
aF0.99019607843137247
aI1
aF0.99350649350649345
aI1
aF0
aF0.99358974358974361
aF0.82051282051282048
aF0.50384615384615383
aF0.90384615384615385
aF0.45481601731601734
aF0.49242957746478871
aF0.4143323996265173
aF0.37209364620165009
aF0.47209302325581387
aF0.3993308689345374
aF0.45835901386748845
aF0.73284313725490191
aF0.30128205128205127
aF0.056984219754529518
aF0.52378542510121451
aF0.44230769230769235
aF0.35482804232804233
aF0.43311987819622944
aF0.58813729296066253
aF0
aF0.62785498073747936
aF0.77112676056338025
aF0.5565656565656566
aF0.3870078013202235
aF0.43051721797366388
aF0.46707461736539074
aF0.21136622699886012
aF0.39487179487179491
aF0.49038461538461536
aF0
aF0.70440251572327051
aF0.96428571428571419
aF0.856578947368421
aF0.90925925925925921
aF0.96835443037974689
aF0.80921052631578938
aF0.79113924050632911
aF0.36187563710499487
aF0.79870129870129858
aF0.40949367088607597
aF0.95085470085470081
aF0.98076923076923073
aF0.98051948051948046
aF0.98076923076923073
aF0.33823529411764702
aF0.98717948717948711
aF0.98717948717948711
aF0.98717948717948711
aF0.83765432098765435
aF0.55553154710458075
aF0.29999999999999999
aF0.44758812615955479
aF0.93902439024390238
aF0.97499999999999998
aF0.93678160919540232
aF0.98101265822784811
aF0.98630136986301375
aF0.9821428571428571
aF0.31302521008403356
aF0.98101265822784811
aF0.98101265822784811
aF0.98101265822784811
aF0.875
aF0.97111111111111115
aF0.98192771084337349
aF0.3172268907563025
aF0.98076923076923073
aF0.95783132530120474
aF0.95783132530120474
aF0.98101265822784811
aF0.97887323943661975
aF0.96153846153846156
aF0.85779816513761464
aF0.95348837209302328
aF0.98734177215189878
aF0.63795255930087391
aF0.9770833333333333
aF0.9375
aF0.98823529411764699
aF0.47233468286099861
aF0.93958333333333333
aF0.65833333333333333
aF0.96913580246913589
aF0.99079754601226988
aI1
aI1
aF0.50526315789473686
aI1
aI1
aI1
aI1
aI1
aI1
aF0.90000000000000002
aF0.83124999999999993
aF0.614247311827957
aF0.93977272727272732
aF0.73382352941176465
aF0.99382716049382713
aF0.99358974358974361
aF0.9831460674157303
aF0.99390243902439024
aF0.92073170731707321
aF0.81960227272727282
aF0.95299145299145294
aF0.98765432098765438
aI1
aF0
aF0.98780487804878048
aF0.98780487804878048
aF0.58117378048780488
aF0.90740740740740744
aF0.4089083878643664
aF0.37500000000000006
aF0.875
aF0
aF0.82993197278911557
aF0.98717948717948711
aF0.7763440860215054
aI1
aF0.71428571428571419
aI1
aF0.40190100430416076
aF0.97093023255813959
aF0.99473684210526314
aF0.73660714285714279
aF0.94999999999999996
aF0.9297752808988764
aI1
aF0.20426829268292684
aF0.76190476190476186
aF0
aI1
aF0
aF0.80686274509803924
aF0.65447154471544711
aI1
aF0.97058823529411764
aF0.93814432989690721
asS'rewardfun'
p1444
S'tcfail'
p1445
s.