(dp1
S'avg_precision'
p2
(lp3
I1
aI1
aI123
aI123
aI1
aI1
aI123
aI123
aI1
aI123
aI123
aI123
aI123
aI123
aI1
aI1
aI123
aI123
aI1
aI1
aI1
aI1
aI123
aI123
aI1
aI1
aI1
aI1
aI1
aI123
aI123
aI123
aI123
aI123
aI123
aI123
aI1
aI123
aI123
aI123
aI123
aI123
aI1
aI1
aI123
aI1
aI1
aI1
aI1
aI123
aI123
aI123
aI1
aI1
aI123
aI1
aI1
aI1
aI1
aI1
aI123
aI123
aI123
aI123
aI123
aI123
aI123
aI123
aI1
aI1
aI1
aI1
aI1
aI1
aI1
aI1
aI1
aI123
aI1
aI123
aI1
aI1
aI123
aI123
aI123
aI123
aI1
aI1
aI123
aI123
aI1
aI1
aI1
aI123
aI1
aI1
aI1
aI123
aI123
aI123
asS'rewards'
p4
(lp5
cnumpy.core.multiarray
scalar
p6
(cnumpy
dtype
p7
(S'f8'
I0
I1
tRp8
(I3
S'<'
NNNI-1
I-1
I0
tbS'\x00\x00\x00\x00\x00\x00\x00\x00'
tRp9
ag6
(g8
S'\x00\x00\x00\x00\x00\x00\x00\x00'
tRp10
ag6
(g8
S'\x00\x00\x00\x00\x00\x00\x00\x00'
tRp11
ag6
(g8
S'\x96{\x1aa\xb9\xa7\x91?'
tRp12
ag6
(g8
S'\x00\x00\x00\x00\x00\x00\x00\x00'
tRp13
ag6
(g8
S'\x00\x00\x00\x00\x00\x00\x00\x00'
tRp14
ag6
(g8
S'\x00\x00\x00\x00\x00\x00\x00\x00'
tRp15
ag6
(g8
S'\x00\x00\x00\x00\x00\x00\x00\x00'
tRp16
ag6
(g8
S'\x00\x00\x00\x00\x00\x00\x00\x00'
tRp17
ag6
(g8
S'\x00\x00\x00\x00\x00\x00\x00\x00'
tRp18
ag6
(g8
S'\x94\xba/\x8f\xad\x08\xaa?'
tRp19
ag6
(g8
S'\x17l\xc1\x16l\xc1\x86?'
tRp20
ag6
(g8
S'\x00\x00\x00\x00\x00\x00\x00\x00'
tRp21
ag6
(g8
S'\x00\x00\x00\x00\x00\x00\x00\x00'
tRp22
ag6
(g8
S'\x00\x00\x00\x00\x00\x00\x00\x00'
tRp23
ag6
(g8
S'\x00\x00\x00\x00\x00\x00\x00\x00'
tRp24
ag6
(g8
S'\x00\x00\x00\x00\x00\x00\x00\x00'
tRp25
ag6
(g8
S'\x08\x1f|\xf0\xc1\x07\x9f?'
tRp26
ag6
(g8
S'\x00\x00\x00\x00\x00\x00\x00\x00'
tRp27
ag6
(g8
S'\x00\x00\x00\x00\x00\x00\x00\x00'
tRp28
ag6
(g8
S'\x00\x00\x00\x00\x00\x00\x00\x00'
tRp29
ag6
(g8
S'\x00\x00\x00\x00\x00\x00\x00\x00'
tRp30
ag6
(g8
S'\x00\x00\x00\x00\x00\x00\x00\x00'
tRp31
ag6
(g8
S'\x00\x00\x00\x00\x00\x00\x00\x00'
tRp32
ag6
(g8
S'\x00\x00\x00\x00\x00\x00\x00\x00'
tRp33
ag6
(g8
S'\x00\x00\x00\x00\x00\x00\x00\x00'
tRp34
ag6
(g8
S'\x00\x00\x00\x00\x00\x00\x00\x00'
tRp35
ag6
(g8
S'\x00\x00\x00\x00\x00\x00\x00\x00'
tRp36
ag6
(g8
S'\x00\x00\x00\x00\x00\x00\x00\x00'
tRp37
ag6
(g8
S'\x00\x00\x00\x00\x00\x00\x00\x00'
tRp38
ag6
(g8
S'\x00\x00\x00\x00\x00\x00\x00\x00'
tRp39
ag6
(g8
S'\x9a\x99\x99\x99\x99\x99y?'
tRp40
ag6
(g8
S'4\xf9\xb2A\x93/\x9b?'
tRp41
ag6
(g8
S'wwwwww\xd7?'
tRp42
ag6
(g8
S'\xce9\xe7\x9cs\xce\xd9?'
tRp43
ag6
(g8
S'\x1c\xc7q\x1c\xc7q\xdc?'
tRp44
ag6
(g8
S'\x00\x00\x00\x00\x00\x00\x00\x00'
tRp45
ag6
(g8
S'\x84\x10B\x08!\x84\xa0?'
tRp46
ag6
(g8
S'\x00\x00\x00\x00\x00\x00\x00\x00'
tRp47
ag6
(g8
S'n\xdb\xb6m\xdb\xb6\xd1?'
tRp48
ag6
(g8
S'\x87\x1f\xd5%f-t?'
tRp49
ag6
(g8
S'\x00\x00\x00\x00\x00\x00\x00\x00'
tRp50
ag6
(g8
S'\x00\x00\x00\x00\x00\x00\x00\x00'
tRp51
ag6
(g8
S'\x00\x00\x00\x00\x00\x00\x00\x00'
tRp52
ag6
(g8
S'\x1cL\x91\xcf\xba\xc1\xb4?'
tRp53
ag6
(g8
S'\x00\x00\x00\x00\x00\x00\x00\x00'
tRp54
ag6
(g8
S'\x00\x00\x00\x00\x00\x00\x00\x00'
tRp55
ag6
(g8
S'\x00\x00\x00\x00\x00\x00\x00\x00'
tRp56
ag6
(g8
S'\x00\x00\x00\x00\x00\x00\x00\x00'
tRp57
ag6
(g8
S'\x02\xa9\xe4\xbc,\xe2\x83?'
tRp58
ag6
(g8
S'o0E>\xeb\x06\xc3?'
tRp59
ag6
(g8
S'\xdb\x81\xb9v`\xae\xad?'
tRp60
ag6
(g8
S'\x00\x00\x00\x00\x00\x00\x00\x00'
tRp61
ag6
(g8
S'\x00\x00\x00\x00\x00\x00\x00\x00'
tRp62
ag6
(g8
S'\x00\x00\x00\x00\x00\x00\x00\x00'
tRp63
ag6
(g8
S'\x00\x00\x00\x00\x00\x00\x00\x00'
tRp64
ag6
(g8
S'\x00\x00\x00\x00\x00\x00\x00\x00'
tRp65
ag6
(g8
S'\x00\x00\x00\x00\x00\x00\x00\x00'
tRp66
ag6
(g8
S'\x00\x00\x00\x00\x00\x00\x00\x00'
tRp67
ag6
(g8
S'\x00\x00\x00\x00\x00\x00\x00\x00'
tRp68
ag6
(g8
S'\x00\x00\x00\x00\x00\x00\x00\x00'
tRp69
ag6
(g8
S'\x00\x00\x00\x00\x00\x00\x00\x00'
tRp70
ag6
(g8
S'\x00\x00\x00\x00\x00\x00\x00\x00'
tRp71
ag6
(g8
S'\x00\x00\x00\x00\x00\x00\x00\x00'
tRp72
ag6
(g8
S'\x00\x00\x00\x00\x00\x00\xb0?'
tRp73
ag6
(g8
S'\x00\x00\x00\x00\x00\x00\x00\x00'
tRp74
ag6
(g8
S'\x00\x00\x00\x00\x00\x00\x00\x00'
tRp75
ag6
(g8
S'O\x1b\xe8\xb4\x81N\x8b?'
tRp76
ag6
(g8
S'\x00\x00\x00\x00\x00\x00\x00\x00'
tRp77
ag6
(g8
S'\x00\x00\x00\x00\x00\x00\x00\x00'
tRp78
ag6
(g8
S'\x00\x00\x00\x00\x00\x00\x00\x00'
tRp79
ag6
(g8
S'\x00\x00\x00\x00\x00\x00\x00\x00'
tRp80
ag6
(g8
S'\x00\x00\x00\x00\x00\x00\x00\x00'
tRp81
ag6
(g8
S'\x00\x00\x00\x00\x00\x00\x00\x00'
tRp82
ag6
(g8
S'\x00\x00\x00\x00\x00\x00\x00\x00'
tRp83
ag6
(g8
S'\x00\x00\x00\x00\x00\x00\x00\x00'
tRp84
ag6
(g8
S'\x00\x00\x00\x00\x00\x00\x00\x00'
tRp85
ag6
(g8
S'\x1d\xd4A\x1d\xd4A\x9d?'
tRp86
ag6
(g8
S'\x00\x00\x00\x00\x00\x00\x00\x00'
tRp87
ag6
(g8
S'\xd0\xba\xc1\x14\xf9\xac\x8b?'
tRp88
ag6
(g8
S'\x00\x00\x00\x00\x00\x00\x00\x00'
tRp89
ag6
(g8
S'\x00\x00\x00\x00\x00\x00\x00\x00'
tRp90
ag6
(g8
S'\xf9\xc3\x01\x8f?\x1c\xe0?'
tRp91
ag6
(g8
S'\xc9g\xdd`\x8a|\xe6?'
tRp92
ag6
(g8
S'\xc9g\xdd`\x8a|\xe6?'
tRp93
ag6
(g8
S'\xc9g\xdd`\x8a|\xe6?'
tRp94
ag6
(g8
S'\x00\x00\x00\x00\x00\x00\x00\x00'
tRp95
ag6
(g8
S'\x00\x00\x00\x00\x00\x00\x00\x00'
tRp96
ag6
(g8
S'\x00\x00\x00\x00\x00\x00\x00\x00'
tRp97
ag6
(g8
S'Cy\r\xe55\x94\xb7?'
tRp98
ag6
(g8
S'\x00\x00\x00\x00\x00\x00\x00\x00'
tRp99
ag6
(g8
S'\x00\x00\x00\x00\x00\x00\x00\x00'
tRp100
ag6
(g8
S'\x00\x00\x00\x00\x00\x00\x00\x00'
tRp101
ag6
(g8
S'\xd0\xba\xc1\x14\xf9\xac\x8b?'
tRp102
ag6
(g8
S'\x00\x00\x00\x00\x00\x00\x00\x00'
tRp103
ag6
(g8
S'\x00\x00\x00\x00\x00\x00\x00\x00'
tRp104
ag6
(g8
S'\x00\x00\x00\x00\x00\x00\x00\x00'
tRp105
ag6
(g8
S'\xa0\xd3\x06:m\xa0\xe3?'
tRp106
ag6
(g8
S'\r\xe55\x94\xd7P\xde?'
tRp107
ag6
(g8
S'Cy\r\xe55\x94\xd7?'
tRp108
asS'missed'
p109
(lp110
L0L
aL0L
aL1L
aL0L
aL0L
aL0L
aL1L
aL1L
aL0L
aL4L
aL1L
aL8L
aL1L
aL1L
aL0L
aL0L
aL3L
aL0L
aL0L
aL0L
aL0L
aL0L
aL4L
aL1L
aL0L
aL0L
aL0L
aL0L
aL0L
aL1L
aL5L
aL10L
aL2L
aL29L
aL28L
aL25L
aL0L
aL6L
aL1L
aL22L
aL1L
aL1L
aL0L
aL0L
aL2L
aL0L
aL0L
aL0L
aL0L
aL0L
aL20L
aL26L
aL0L
aL0L
aL1L
aL0L
aL0L
aL0L
aL0L
aL0L
aL1L
aL1L
aL1L
aL1L
aL1L
aL1L
aL2L
aL0L
aL0L
aL0L
aL0L
aL0L
aL0L
aL0L
aL0L
aL0L
aL0L
aL0L
aL0L
aL0L
aL0L
aL0L
aL1L
aL22L
aL22L
aL22L
aL0L
aL0L
aL2L
aL1L
aL0L
aL0L
aL0L
aL0L
aL0L
aL0L
aL0L
aL26L
aL6L
aL13L
asS'history_length'
p111
I8
sS'recall'
p112
(lp113
I1
aI1
aF0
aF1
aI1
aI1
aF0
aF0
aI1
aF0
aF0.75
aF0.1111111111111111
aF0
aF0
aI1
aI1
aF0
aF1
aI1
aI1
aI1
aI1
aF0
aF0
aI1
aI1
aI1
aI1
aI1
aF0
aF0
aF0.090909090909090912
aF0.59999999999999998
aF0.43137254901960786
aF0.47169811320754718
aF0.48979591836734693
aI1
aF0.40000000000000002
aF0
aF0.58490566037735847
aF0.5
aF0
aI1
aI1
aF0.75
aI1
aI1
aI1
aI1
aF1
aF0.35483870967741937
aF0.13333333333333333
aI1
aI1
aF0
aI1
aI1
aI1
aI1
aI1
aF0
aF0
aF0
aF0
aF0.66666666666666663
aF0
aF0
aF1
aI1
aI1
aI1
aI1
aI1
aI1
aI1
aI1
aI1
aF1
aI1
aF1
aI1
aI1
aF0.98648648648648651
aF0.70270270270270274
aF0.70270270270270274
aF0.70270270270270274
aI1
aI1
aF0
aF0.875
aI1
aI1
aI1
aF1
aI1
aI1
aI1
aF0.63888888888888884
aF0.59999999999999998
aF0.61764705882352944
asS'durations'
p114
(lp115
F0.29298615455627441
aF0.00021481513977050781
aF0.0080029964447021484
aF0.021045923233032227
aF0.38301587104797363
aF0.010015964508056641
aF0.012890100479125977
aF0.0058028697967529297
aF0.021924018859863281
aF0.016551971435546875
aF0.01946711540222168
aF0.029459953308105469
aF0.0051748752593994141
aF0.011409997940063477
aF0.023009061813354492
aF0.0090789794921875
aF0.010265827178955078
aF0.020330905914306641
aF0.0083131790161132812
aF0.02375483512878418
aF0.014707088470458984
aF0.012897014617919922
aF0.014068126678466797
aF0.0175628662109375
aF0.020563125610351562
aF0.0065190792083740234
aF0.013547182083129883
aF0.021240949630737305
aF0.010919809341430664
aF0.032567977905273438
aF0.021857976913452148
aF0.063610076904296875
aF0.04436802864074707
aF0.023962020874023438
aF0.042071819305419922
aF0.021072149276733398
aF0.00017809867858886719
aF0.055009841918945312
aF0.019876003265380859
aF0.06423497200012207
aF0.081454992294311523
aF0.0134429931640625
aF0.00020694732666015625
aF0.025905847549438477
aF0.041682958602905273
aF0.031617164611816406
aF0.025514125823974609
aF0.020817995071411133
aF0.02621006965637207
aF0.059893131256103516
aF0.032664060592651367
aF0.026813030242919922
aF0.015473842620849609
aF0.026057958602905273
aF0.039605140686035156
aF0.021476984024047852
aF0.021618127822875977
aF0.024012088775634766
aF0.02779698371887207
aF0.054013967514038086
aF0.026709079742431641
aF0.030704021453857422
aF0.030956029891967773
aF0.028480052947998047
aF0.034244060516357422
aF0.017120122909545898
aF0.024729013442993164
aF0.028470039367675781
aF0.021474123001098633
aF0.045706987380981445
aF0.024008989334106445
aF0.029294967651367188
aF0.028101921081542969
aF0.034116029739379883
aF0.042409896850585938
aF0.027634143829345703
aF0.030650854110717773
aF0.018944025039672852
aF0.0004978179931640625
aF0.047791004180908203
aF0.028074026107788086
aF0.031815052032470703
aF0.065300941467285156
aF0.012953042984008789
aF0.032746076583862305
aF0.022873878479003906
aF0.027657985687255859
aF0.027846097946166992
aF0.023988008499145508
aF0.045685052871704102
aF0.029052019119262695
aF0.027778148651123047
aF0.027530908584594727
aF0.025239944458007812
aF0.046146869659423828
aF0.027363061904907227
aF0.032028913497924805
aF0.030494928359985352
aF0.0063459873199462891
aF0.046828985214233398
asS'step'
p116
(lp117
I1
aI2
aI3
aI4
aI5
aI6
aI7
aI8
aI9
aI10
aI11
aI12
aI13
aI14
aI15
aI16
aI17
aI18
aI19
aI20
aI21
aI22
aI23
aI24
aI25
aI26
aI27
aI28
aI29
aI30
aI31
aI32
aI33
aI34
aI35
aI36
aI37
aI38
aI39
aI40
aI41
aI42
aI43
aI44
aI45
aI46
aI47
aI48
aI49
aI50
aI51
aI52
aI53
aI54
aI55
aI56
aI57
aI58
aI59
aI60
aI61
aI62
aI63
aI64
aI65
aI66
aI67
aI68
aI69
aI70
aI71
aI72
aI73
aI74
aI75
aI76
aI77
aI78
aI79
aI80
aI81
aI82
aI83
aI84
aI85
aI86
aI87
aI88
aI89
aI90
aI91
aI92
aI93
aI94
aI95
aI96
aI97
aI98
aI99
aI100
asS'agent'
p118
S'mlpclassifier'
p119
sS'sched_time'
p120
F0.5
sS'scenarios'
p121
(lp122
S'2016-01-13T09:17:00'
p123
aS'2016-01-13T10:39:00'
p124
aS'2016-01-14T12:15:00'
p125
aS'2016-01-15T09:50:00'
p126
aS'2016-01-16T00:22:00'
p127
aS'2016-01-17T00:21:00'
p128
aS'2016-01-18T00:19:00'
p129
aS'2016-01-19T00:15:00'
p130
aS'2016-01-20T00:13:00'
p131
aS'2016-01-21T00:12:00'
p132
aS'2016-01-22T00:11:00'
p133
aS'2016-01-23T00:09:00'
p134
aS'2016-01-24T00:09:00'
p135
aS'2016-01-25T00:08:00'
p136
aS'2016-01-26T00:07:00'
p137
aS'2016-01-27T00:06:00'
p138
aS'2016-01-28T00:04:00'
p139
aS'2016-01-29T00:04:00'
p140
aS'2016-01-30T00:04:00'
p141
aS'2016-01-31T00:02:00'
p142
aS'2016-02-01T00:01:00'
p143
aS'2016-02-02T00:01:00'
p144
aS'2016-02-02T23:57:00'
p145
aS'2016-02-03T23:56:00'
p146
aS'2016-02-04T23:55:00'
p147
aS'2016-02-05T23:53:00'
p148
aS'2016-02-06T23:53:00'
p149
aS'2016-02-07T23:52:00'
p150
aS'2016-02-08T23:50:00'
p151
aS'2016-02-09T23:48:00'
p152
aS'2016-02-10T23:47:00'
p153
aS'2016-02-11T23:46:00'
p154
aS'2016-02-12T23:42:00'
p155
aS'2016-02-13T23:41:00'
p156
aS'2016-02-14T23:41:00'
p157
aS'2016-02-15T23:41:00'
p158
aS'2016-02-16T00:49:00'
p159
aS'2016-02-17T08:55:00'
p160
aS'2016-02-18T02:45:00'
p161
aS'2016-02-19T02:45:00'
p162
aS'2016-02-20T02:18:00'
p163
aS'2016-02-21T02:18:00'
p164
aS'2016-02-22T00:29:00'
p165
aS'2016-02-23T07:56:00'
p166
aS'2016-02-24T03:00:00'
p167
aS'2016-02-25T02:18:00'
p168
aS'2016-02-26T02:15:00'
p169
aS'2016-02-27T02:14:00'
p170
aS'2016-02-28T02:14:00'
p171
aS'2016-02-29T02:14:00'
p172
aS'2016-03-01T00:43:00'
p173
aS'2016-03-02T00:16:00'
p174
aS'2016-03-03T00:15:00'
p175
aS'2016-03-04T00:10:00'
p176
aS'2016-03-05T00:09:00'
p177
aS'2016-03-06T00:05:00'
p178
aS'2016-03-06T23:59:00'
p179
aS'2016-03-07T23:59:00'
p180
aS'2016-03-08T23:54:00'
p181
aS'2016-03-09T23:54:00'
p182
aS'2016-03-10T21:55:00'
p183
aS'2016-03-11T21:52:00'
p184
aS'2016-03-12T21:51:00'
p185
aS'2016-03-13T21:51:00'
p186
aS'2016-03-14T21:51:00'
p187
aS'2016-03-15T19:52:00'
p188
aS'2016-03-16T19:52:00'
p189
aS'2016-03-17T19:52:00'
p190
aS'2016-03-18T19:51:00'
p191
aS'2016-03-19T19:51:00'
p192
aS'2016-03-20T19:50:00'
p193
aS'2016-03-21T19:50:00'
p194
aS'2016-03-22T19:49:00'
p195
aS'2016-03-23T19:48:00'
p196
aS'2016-03-24T19:48:00'
p197
aS'2016-03-25T19:47:00'
p198
aS'2016-03-26T19:46:00'
p199
aS'2016-03-27T19:45:00'
p200
aS'2016-03-28T18:02:00'
p201
aS'2016-03-29T18:02:00'
p202
aS'2016-03-30T18:02:00'
p203
aS'2016-03-31T18:02:00'
p204
aS'2016-04-01T18:02:00'
p205
aS'2016-04-02T18:01:00'
p206
aS'2016-04-03T18:00:00'
p207
aS'2016-04-04T18:00:00'
p208
aS'2016-04-05T18:00:00'
p209
aS'2016-04-06T18:00:00'
p210
aS'2016-04-07T18:00:00'
p211
aS'2016-04-08T18:00:00'
p212
aS'2016-04-09T18:00:00'
p213
aS'2016-04-10T18:00:00'
p214
aS'2016-04-11T18:00:00'
p215
aS'2016-04-12T18:00:00'
p216
aS'2016-04-13T18:00:00'
p217
aS'2016-04-14T18:00:00'
p218
aS'2016-04-15T18:00:00'
p219
aS'2016-04-16T18:00:00'
p220
aS'2016-04-16T18:40:00'
p221
aS'2016-04-17T18:39:00'
p222
asS'detected'
p223
(lp224
I0
aI0
aI0
aI1
aI0
aI0
aI0
aI0
aI0
aI0
aI3
aI1
aI0
aI0
aI0
aI0
aI0
aI1
aI0
aI0
aI0
aI0
aI0
aI0
aI0
aI0
aI0
aI0
aI0
aI0
aI0
aI1
aI3
aI22
aI25
aI24
aI0
aI4
aI0
aI31
aI1
aI0
aI0
aI0
aI6
aI0
aI0
aI0
aI0
aI1
aI11
aI4
aI0
aI0
aI0
aI0
aI0
aI0
aI0
aI0
aI0
aI0
aI0
aI0
aI2
aI0
aI0
aI1
aI0
aI0
aI0
aI0
aI0
aI0
aI0
aI0
aI0
aI1
aI0
aI1
aI0
aI0
aI73
aI52
aI52
aI52
aI0
aI0
aI0
aI7
aI0
aI0
aI0
aI1
aI0
aI0
aI0
aI46
aI9
aI21
asS'result'
p225
(lp226
(lp227
I0
aL0L
aI0
aI1
aI1
aI1
a(lp228
aa(lp229
I0
aL0L
aI0
aI1
aI1
aI1
a(lp230
aa(lp231
I0
aL1L
aI0
aF0
aF0
aI123
a(lp232
aa(lp233
I1
aL0L
aI27
aF0.5431034482758621
aF1
aI123
a(lp234
I27
aaa(lp235
I0
aL0L
aI0
aI1
aI1
aI1
a(lp236
aa(lp237
I0
aL0L
aI0
aI1
aI1
aI1
a(lp238
aa(lp239
I0
aL1L
aI0
aF0
aF0
aI123
a(lp240
aa(lp241
I0
aL1L
aI0
aF0
aF0
aI123
a(lp242
aa(lp243
I0
aL0L
aI0
aI1
aI1
aI1
a(lp244
aa(lp245
I0
aL4L
aI0
aF0
aF0
aI123
a(lp246
aa(lp247
I3
aL1L
aI33
aF0.31567796610169491
aF0.75
aI123
a(lp248
I33
aI35
aI36
aaa(lp249
I1
aL8L
aI53
aF0.046296296296296287
aF0.1111111111111111
aI123
a(lp250
I53
aaa(lp251
I0
aL1L
aI0
aF0
aF0
aI123
a(lp252
aa(lp253
I0
aL1L
aI0
aF0
aF0
aI123
a(lp254
aa(lp255
I0
aL0L
aI0
aI1
aI1
aI1
a(lp256
aa(lp257
I0
aL0L
aI0
aI1
aI1
aI1
a(lp258
aa(lp259
I0
aL3L
aI0
aF0
aF0
aI123
a(lp260
aa(lp261
I1
aL0L
aI12
aF0.65151515151515149
aF1
aI123
a(lp262
I12
aaa(lp263
I0
aL0L
aI0
aI1
aI1
aI1
a(lp264
aa(lp265
I0
aL0L
aI0
aI1
aI1
aI1
a(lp266
aa(lp267
I0
aL0L
aI0
aI1
aI1
aI1
a(lp268
aa(lp269
I0
aL0L
aI0
aI1
aI1
aI1
a(lp270
aa(lp271
I0
aL4L
aI0
aF0
aF0
aI123
a(lp272
aa(lp273
I0
aL1L
aI0
aF0
aF0
aI123
a(lp274
aa(lp275
I0
aL0L
aI0
aI1
aI1
aI1
a(lp276
aa(lp277
I0
aL0L
aI0
aI1
aI1
aI1
a(lp278
aa(lp279
I0
aL0L
aI0
aI1
aI1
aI1
a(lp280
aa(lp281
I0
aL0L
aI0
aI1
aI1
aI1
a(lp282
aa(lp283
I0
aL0L
aI0
aI1
aI1
aI1
a(lp284
aa(lp285
I0
aL1L
aI0
aF0
aF0
aI123
a(lp286
aa(lp287
I0
aL5L
aI0
aF0
aF0
aI123
a(lp288
aa(lp289
I1
aL10L
aI50
aF0.062784090909090914
aF0.090909090909090912
aI123
a(lp290
I50
aaa(lp291
I3
aL2L
aI1
aF0.59203539823008855
aF0.59999999999999998
aI123
a(lp292
I1
aI2
aI3
aaa(lp293
I22
aL29L
aI8
aF0.29509803921568628
aF0.43137254901960786
aI123
a(lp294
I8
aI10
aI11
aI12
aI13
aI14
aI15
aI16
aI17
aI18
aI19
aI20
aI21
aI22
aI23
aI24
aI25
aI26
aI27
aI28
aI29
aI30
aaa(lp295
I25
aL28L
aI10
aF0.30812538040170417
aF0.47169811320754718
aI123
a(lp296
I10
aI11
aI12
aI13
aI14
aI15
aI16
aI17
aI18
aI19
aI20
aI21
aI22
aI23
aI24
aI25
aI26
aI27
aI28
aI29
aI30
aI31
aI32
aI33
aI34
aaa(lp297
I24
aL25L
aI6
aF0.33560090702947848
aF0.48979591836734693
aI123
a(lp298
I6
aI7
aI8
aI9
aI10
aI11
aI12
aI13
aI14
aI15
aI16
aI17
aI18
aI19
aI20
aI21
aI22
aI23
aI24
aI25
aI26
aI27
aI28
aI29
aaa(lp299
I0
aL0L
aI0
aI1
aI1
aI1
a(lp300
aa(lp301
I4
aL6L
aI37
aF0.23951612903225808
aF0.40000000000000002
aI123
a(lp302
I37
aI49
aI56
aI59
aaa(lp303
I0
aL1L
aI0
aF0
aF0
aI123
a(lp304
aa(lp305
I31
aL22L
aI1
aF0.46453840970350402
aF0.58490566037735847
aI123
a(lp306
I1
aI2
aI3
aI4
aI5
aI15
aI16
aI17
aI18
aI19
aI20
aI21
aI22
aI23
aI24
aI25
aI26
aI27
aI28
aI29
aI30
aI31
aI32
aI33
aI34
aI35
aI36
aI37
aI38
aI39
aI40
aaa(lp307
I1
aL1L
aI12
aF0.47167487684729065
aF0.5
aI123
a(lp308
I12
aaa(lp309
I0
aL1L
aI0
aF0
aF0
aI123
a(lp310
aa(lp311
I0
aL0L
aI0
aI1
aI1
aI1
a(lp312
aa(lp313
I0
aL0L
aI0
aI1
aI1
aI1
a(lp314
aa(lp315
I6
aL2L
aI14
aF0.48141891891891891
aF0.75
aI123
a(lp316
I14
aI23
aI26
aI29
aI34
aI36
aaa(lp317
I0
aL0L
aI0
aI1
aI1
aI1
a(lp318
aa(lp319
I0
aL0L
aI0
aI1
aI1
aI1
a(lp320
aa(lp321
I0
aL0L
aI0
aI1
aI1
aI1
a(lp322
aa(lp323
I0
aL0L
aI0
aI1
aI1
aI1
a(lp324
aa(lp325
I1
aL0L
aI29
aF0.72330097087378642
aF1
aI123
a(lp326
I29
aaa(lp327
I11
aL20L
aI7
aF0.20292066259808197
aF0.35483870967741937
aI123
a(lp328
I7
aI8
aI31
aI35
aI36
aI37
aI38
aI39
aI40
aI41
aI42
aaa(lp329
I4
aL26L
aI33
aF0.062801932367149746
aF0.13333333333333333
aI123
a(lp330
I33
aI34
aI40
aI41
aaa(lp331
I0
aL0L
aI0
aI1
aI1
aI1
a(lp332
aa(lp333
I0
aL0L
aI0
aI1
aI1
aI1
a(lp334
aa(lp335
I0
aL1L
aI0
aF0
aF0
aI123
a(lp336
aa(lp337
I0
aL0L
aI0
aI1
aI1
aI1
a(lp338
aa(lp339
I0
aL0L
aI0
aI1
aI1
aI1
a(lp340
aa(lp341
I0
aL0L
aI0
aI1
aI1
aI1
a(lp342
aa(lp343
I0
aL0L
aI0
aI1
aI1
aI1
a(lp344
aa(lp345
I0
aL0L
aI0
aI1
aI1
aI1
a(lp346
aa(lp347
I0
aL1L
aI0
aF0
aF0
aI123
a(lp348
aa(lp349
I0
aL1L
aI0
aF0
aF0
aI123
a(lp350
aa(lp351
I0
aL1L
aI0
aF0
aF0
aI123
a(lp352
aa(lp353
I0
aL1L
aI0
aF0
aF0
aI123
a(lp354
aa(lp355
I2
aL1L
aI4
aF0.47916666666666669
aF0.66666666666666663
aI123
a(lp356
I4
aI15
aaa(lp357
I0
aL1L
aI0
aF0
aF0
aI123
a(lp358
aa(lp359
I0
aL2L
aI0
aF0
aF0
aI123
a(lp360
aa(lp361
I1
aL0L
aI5
aF0.94000000000000006
aF1
aI123
a(lp362
I5
aaa(lp363
I0
aL0L
aI0
aI1
aI1
aI1
a(lp364
aa(lp365
I0
aL0L
aI0
aI1
aI1
aI1
a(lp366
aa(lp367
I0
aL0L
aI0
aI1
aI1
aI1
a(lp368
aa(lp369
I0
aL0L
aI0
aI1
aI1
aI1
a(lp370
aa(lp371
I0
aL0L
aI0
aI1
aI1
aI1
a(lp372
aa(lp373
I0
aL0L
aI0
aI1
aI1
aI1
a(lp374
aa(lp375
I0
aL0L
aI0
aI1
aI1
aI1
a(lp376
aa(lp377
I0
aL0L
aI0
aI1
aI1
aI1
a(lp378
aa(lp379
I0
aL0L
aI0
aI1
aI1
aI1
a(lp380
aa(lp381
I1
aL0L
aI1
aF0.98571428571428565
aF1
aI123
a(lp382
I1
aaa(lp383
I0
aL0L
aI0
aI1
aI1
aI1
a(lp384
aa(lp385
I1
aL0L
aI31
aF0.58783783783783794
aF1
aI123
a(lp386
I31
aaa(lp387
I0
aL0L
aI0
aI1
aI1
aI1
a(lp388
aa(lp389
I0
aL0L
aI0
aI1
aI1
aI1
a(lp390
aa(lp391
I73
aL1L
aI1
aF0.7381640260950606
aF0.98648648648648651
aI123
a(lp392
I1
aI2
aI3
aI4
aI5
aI6
aI7
aI8
aI9
aI10
aI11
aI12
aI13
aI14
aI15
aI16
aI17
aI18
aI19
aI20
aI21
aI22
aI23
aI24
aI25
aI26
aI27
aI28
aI29
aI30
aI31
aI32
aI33
aI34
aI35
aI36
aI37
aI38
aI39
aI40
aI41
aI42
aI43
aI44
aI45
aI46
aI47
aI48
aI49
aI50
aI51
aI52
aI53
aI54
aI55
aI56
aI57
aI58
aI59
aI60
aI61
aI62
aI63
aI64
aI65
aI66
aI67
aI68
aI69
aI70
aI71
aI72
aI73
aaa(lp393
I52
aL22L
aI1
aF0.45580715850986125
aF0.70270270270270274
aI123
a(lp394
I1
aI2
aI3
aI4
aI5
aI6
aI7
aI8
aI9
aI10
aI11
aI12
aI13
aI14
aI15
aI16
aI17
aI18
aI19
aI20
aI21
aI22
aI23
aI24
aI25
aI26
aI27
aI28
aI29
aI30
aI31
aI32
aI33
aI34
aI35
aI36
aI37
aI38
aI39
aI40
aI41
aI42
aI43
aI44
aI45
aI46
aI47
aI48
aI49
aI50
aI51
aI52
aaa(lp395
I52
aL22L
aI1
aF0.45580715850986125
aF0.70270270270270274
aI123
a(lp396
I1
aI2
aI3
aI4
aI5
aI6
aI7
aI8
aI9
aI10
aI11
aI12
aI13
aI14
aI15
aI16
aI17
aI18
aI19
aI20
aI21
aI22
aI23
aI24
aI25
aI26
aI27
aI28
aI29
aI30
aI31
aI32
aI33
aI34
aI35
aI36
aI37
aI38
aI39
aI40
aI41
aI42
aI43
aI44
aI45
aI46
aI47
aI48
aI49
aI50
aI51
aI52
aaa(lp397
I52
aL22L
aI1
aF0.45580715850986125
aF0.70270270270270274
aI123
a(lp398
I1
aI2
aI3
aI4
aI5
aI6
aI7
aI8
aI9
aI10
aI11
aI12
aI13
aI14
aI15
aI16
aI17
aI18
aI19
aI20
aI21
aI22
aI23
aI24
aI25
aI26
aI27
aI28
aI29
aI30
aI31
aI32
aI33
aI34
aI35
aI36
aI37
aI38
aI39
aI40
aI41
aI42
aI43
aI44
aI45
aI46
aI47
aI48
aI49
aI50
aI51
aI52
aaa(lp399
I0
aL0L
aI0
aI1
aI1
aI1
a(lp400
aa(lp401
I0
aL0L
aI0
aI1
aI1
aI1
a(lp402
aa(lp403
I0
aL2L
aI0
aF0
aF0
aI123
a(lp404
aa(lp405
I7
aL1L
aI5
aF0.6389802631578948
aF0.875
aI123
a(lp406
I5
aI12
aI15
aI20
aI24
aI28
aI43
aaa(lp407
I0
aL0L
aI0
aI1
aI1
aI1
a(lp408
aa(lp409
I0
aL0L
aI0
aI1
aI1
aI1
a(lp410
aa(lp411
I0
aL0L
aI0
aI1
aI1
aI1
a(lp412
aa(lp413
I1
aL0L
aI37
aF0.5067567567567568
aF1
aI123
a(lp414
I37
aaa(lp415
I0
aL0L
aI0
aI1
aI1
aI1
a(lp416
aa(lp417
I0
aL0L
aI0
aI1
aI1
aI1
a(lp418
aa(lp419
I0
aL0L
aI0
aI1
aI1
aI1
a(lp420
aa(lp421
I46
aL26L
aI1
aF0.44277777777777771
aF0.63888888888888884
aI123
a(lp422
I1
aI2
aI3
aI4
aI5
aI6
aI7
aI8
aI9
aI10
aI11
aI12
aI13
aI14
aI15
aI16
aI17
aI18
aI19
aI20
aI21
aI22
aI23
aI24
aI25
aI26
aI27
aI28
aI29
aI30
aI31
aI32
aI33
aI34
aI35
aI36
aI37
aI38
aI39
aI40
aI41
aI42
aI43
aI44
aI45
aI47
aaa(lp423
I9
aL6L
aI1
aF0.45789473684210524
aF0.59999999999999998
aI123
a(lp424
I1
aI2
aI3
aI4
aI5
aI6
aI7
aI8
aI9
aaa(lp425
I21
aL13L
aI3
aF0.43163054695562436
aF0.61764705882352944
aI123
a(lp426
I3
aI5
aI6
aI9
aI10
aI13
aI14
aI15
aI16
aI17
aI18
aI19
aI20
aI21
aI22
aI23
aI25
aI26
aI27
aI28
aI34
aaasS'env'
p427
S'paintcontrol'
p428
sS'action_size'
p429
I1
sS'hidden_size'
p430
S'12'
p431
sS'ttf'
p432
(lp433
I0
aI0
aI0
aI27
aI0
aI0
aI0
aI0
aI0
aI0
aI33
aI53
aI0
aI0
aI0
aI0
aI0
aI12
aI0
aI0
aI0
aI0
aI0
aI0
aI0
aI0
aI0
aI0
aI0
aI0
aI0
aI50
aI1
aI8
aI10
aI6
aI0
aI37
aI0
aI1
aI12
aI0
aI0
aI0
aI14
aI0
aI0
aI0
aI0
aI29
aI7
aI33
aI0
aI0
aI0
aI0
aI0
aI0
aI0
aI0
aI0
aI0
aI0
aI0
aI4
aI0
aI0
aI5
aI0
aI0
aI0
aI0
aI0
aI0
aI0
aI0
aI0
aI1
aI0
aI31
aI0
aI0
aI1
aI1
aI1
aI1
aI0
aI0
aI0
aI5
aI0
aI0
aI0
aI37
aI0
aI0
aI0
aI1
aI1
aI3
asS'napfd'
p434
(lp435
I1
aI1
aF0
aF0.5431034482758621
aI1
aI1
aF0
aF0
aI1
aF0
aF0.31567796610169491
aF0.046296296296296287
aF0
aF0
aI1
aI1
aF0
aF0.65151515151515149
aI1
aI1
aI1
aI1
aF0
aF0
aI1
aI1
aI1
aI1
aI1
aF0
aF0
aF0.062784090909090914
aF0.59203539823008855
aF0.29509803921568628
aF0.30812538040170417
aF0.33560090702947848
aI1
aF0.23951612903225808
aF0
aF0.46453840970350402
aF0.47167487684729065
aF0
aI1
aI1
aF0.48141891891891891
aI1
aI1
aI1
aI1
aF0.72330097087378642
aF0.20292066259808197
aF0.062801932367149746
aI1
aI1
aF0
aI1
aI1
aI1
aI1
aI1
aF0
aF0
aF0
aF0
aF0.47916666666666669
aF0
aF0
aF0.94000000000000006
aI1
aI1
aI1
aI1
aI1
aI1
aI1
aI1
aI1
aF0.98571428571428565
aI1
aF0.58783783783783794
aI1
aI1
aF0.7381640260950606
aF0.45580715850986125
aF0.45580715850986125
aF0.45580715850986125
aI1
aI1
aF0
aF0.6389802631578948
aI1
aI1
aI1
aF0.5067567567567568
aI1
aI1
aI1
aF0.44277777777777771
aF0.45789473684210524
aF0.43163054695562436
asS'rewardfun'
p436
S'tcfail'
p437
s.