(dp1
S'avg_precision'
p2
(lp3
I1
aI1
aI123
aI123
aI1
aI1
aI123
aI123
aI1
aI123
aI123
aI123
aI123
aI123
aI1
aI1
aI123
aI123
aI1
aI1
aI1
aI1
aI123
aI123
aI1
aI1
aI1
aI1
aI1
aI123
aI123
aI123
aI123
aI123
aI123
aI123
aI1
aI123
aI123
aI123
aI123
aI123
aI1
aI1
aI123
aI1
aI1
aI1
aI1
aI123
aI123
aI123
aI1
aI1
aI123
aI1
aI1
aI1
aI1
aI1
aI123
aI123
aI123
aI123
aI123
aI123
aI123
aI123
aI1
aI1
aI1
aI1
aI1
aI1
aI1
aI1
aI1
aI123
aI1
aI123
aI1
aI1
aI123
aI123
aI123
aI123
aI1
aI1
aI123
aI123
aI1
aI1
aI1
aI123
aI1
aI1
aI1
aI123
aI123
aI123
aI123
aI123
aI123
aI123
aI1
aI1
aI1
aI123
aI123
aI123
aI123
aI1
aI1
aI123
aI123
aI1
aI1
aI1
aI1
aI1
aI1
aI1
aI123
aI123
aI1
aI1
aI1
aI1
aI1
aI123
aI1
aI1
aI1
aI1
aI1
aI1
aI123
aI123
aI123
aI123
aI123
aI123
aI123
aI123
aI123
aI123
aI1
aI1
aI123
aI123
aI123
aI123
aI1
aI123
aI123
aI123
aI123
aI123
aI123
aI123
aI123
aI123
aI123
aI123
aI123
aI123
aI123
aI123
aI123
aI123
aI123
aI123
aI123
aI123
aI123
aI123
aI123
aI123
aI123
aI123
aI123
aI123
aI123
aI123
aI123
aI123
aI123
aI123
aI123
aI123
aI1
aI1
aI123
aI123
aI123
aI123
aI123
aI1
aI123
aI123
aI123
aI123
aI123
aI123
aI123
aI123
aI123
aI123
aI123
aI1
aI123
aI1
aI123
aI123
aI123
aI123
aI123
aI123
aI123
aI123
aI123
aI123
aI123
aI123
aI123
aI123
aI123
aI123
aI123
aI123
aI123
aI123
aI123
aI123
aI123
aI123
aI123
aI123
aI123
aI123
aI123
aI123
aI123
aI123
aI123
aI123
aI123
aI123
aI123
aI123
aI123
aI123
aI123
aI123
aI123
aI123
aI123
aI123
aI123
aI123
aI123
aI123
aI123
aI123
aI123
aI123
aI123
aI123
aI123
aI123
aI123
aI123
aI123
aI123
aI123
aI123
aI123
aI123
aI123
aI123
aI123
aI123
aI123
aI123
aI123
aI123
aI123
aI123
aI123
aI123
aI123
aI123
aI123
aI123
aI123
aI123
aI123
aI1
aI1
aI123
aI1
aI1
aI1
aI1
aI1
aI1
aI123
aI123
aI123
aI123
aI123
aI123
aI123
aI123
aI123
aI123
aI123
aI123
aI123
aI1
aI123
aI123
aI123
aI123
aI123
aI123
aI123
aI123
aI123
aI123
aI123
aI123
aI1
aI123
aI1
aI123
aI123
aI123
aI123
aI123
aI123
aI1
aI123
aI123
aI123
aI1
aI123
aI123
aI123
aI1
aI123
aI123
asS'rewards'
p4
(lp5
cnumpy.core.multiarray
scalar
p6
(cnumpy
dtype
p7
(S'f8'
I0
I1
tRp8
(I3
S'<'
NNNI-1
I-1
I0
tbS'\x00\x00\x00\x00\x00\x00\x00\x00'
tRp9
ag6
(g8
S'\x00\x00\x00\x00\x00\x00\x00\x00'
tRp10
ag6
(g8
S'\x00\x00\x00\x00\x00\x00\x00\x00'
tRp11
ag6
(g8
S'|\x1aa\xb9\xa7\x11\xb6?'
tRp12
ag6
(g8
S'\x00\x00\x00\x00\x00\x00\x00\x00'
tRp13
ag6
(g8
S'\x00\x00\x00\x00\x00\x00\x00\x00'
tRp14
ag6
(g8
S'\xb8\x1e\x85\xebQ\xb8\xde?'
tRp15
ag6
(g8
S'\xb6\xd6Zk\xad\xb5\xd6?'
tRp16
ag6
(g8
S'\x00\x00\x00\x00\x00\x00\x00\x00'
tRp17
ag6
(g8
S'\x11\x11\x11\x11\x11\x11\xf1?'
tRp18
ag6
(g8
S'A\xc3I\xdd\x97\xc7\xd6?'
tRp19
ag6
(g8
S'\x17l\xc1\x16l\xc1\xfe?'
tRp20
ag6
(g8
S'\x00\x00\x00\x00\x00\x00\x00\x00'
tRp21
ag6
(g8
S'\x00\x00\x00\x00\x00\x00\x00\x00'
tRp22
ag6
(g8
S'\x00\x00\x00\x00\x00\x00\x00\x00'
tRp23
ag6
(g8
S'\x00\x00\x00\x00\x00\x00\x00\x00'
tRp24
ag6
(g8
S"'\x9bl\xb2\xc9&\xcb?"
tRp25
ag6
(g8
S'\x00\x00\x00\x00\x00\x00\x00\x00'
tRp26
ag6
(g8
S'\x00\x00\x00\x00\x00\x00\x00\x00'
tRp27
ag6
(g8
S'\x00\x00\x00\x00\x00\x00\x00\x00'
tRp28
ag6
(g8
S'\x00\x00\x00\x00\x00\x00\x00\x00'
tRp29
ag6
(g8
S'\x00\x00\x00\x00\x00\x00\x00\x00'
tRp30
ag6
(g8
S'UUUUUU\xd5?'
tRp31
ag6
(g8
S'\x00\x00\x00\x00\x00\x00\x00\x00'
tRp32
ag6
(g8
S'\x00\x00\x00\x00\x00\x00\x00\x00'
tRp33
ag6
(g8
S'\x00\x00\x00\x00\x00\x00\x00\x00'
tRp34
ag6
(g8
S'\x00\x00\x00\x00\x00\x00\x00\x00'
tRp35
ag6
(g8
S'\x00\x00\x00\x00\x00\x00\x00\x00'
tRp36
ag6
(g8
S'\x00\x00\x00\x00\x00\x00\x00\x00'
tRp37
ag6
(g8
S'\x9a\x99\x99\x99\x99\x99\xa9?'
tRp38
ag6
(g8
S'222222\xe2?'
tRp39
ag6
(g8
S'\xcd\xcc\xcc\xcc\xcc\xcc\x03@'
tRp40
ag6
(g8
S'\xb1\xd2S\x0b+=\xf5?'
tRp41
ag6
(g8
S'\x00\x00\x00\x00\x00@0@'
tRp42
ag6
(g8
S'\xc6\x18c\x8c1\xc6%@'
tRp43
ag6
(g8
S'\xb4\x97\xd0^B{,@'
tRp44
ag6
(g8
S'\x00\x00\x00\x00\x00\x00\x00\x00'
tRp45
ag6
(g8
S'\xe7\x9cs\xce9\xe7\xe4?'
tRp46
ag6
(g8
S'w\xc4\x1dqG\xdc\xe1?'
tRp47
ag6
(g8
S'I\x92$I\x92$\x1d@'
tRp48
ag6
(g8
S'\x92$I\x92$I\xe2?'
tRp49
ag6
(g8
S'a\xb9\xa7\x11\x96{\xba?'
tRp50
ag6
(g8
S'\x00\x00\x00\x00\x00\x00\x00\x00'
tRp51
ag6
(g8
S'\x00\x00\x00\x00\x00\x00\x00\x00'
tRp52
ag6
(g8
S'\xf9\xac\x1bL\x91\xcf\xf2?'
tRp53
ag6
(g8
S'\x00\x00\x00\x00\x00\x00\x00\x00'
tRp54
ag6
(g8
S'\x00\x00\x00\x00\x00\x00\x00\x00'
tRp55
ag6
(g8
S'\x00\x00\x00\x00\x00\x00\x00\x00'
tRp56
ag6
(g8
S'\x00\x00\x00\x00\x00\x00\x00\x00'
tRp57
ag6
(g8
S'\x00\x00\x00\x00\x00\x00\x00\x00'
tRp58
ag6
(g8
S'\xbb\xc1\x14\xf9\xac\x1b\x14@'
tRp59
ag6
(g8
S'8\xbd\xe9Moz\x1b@'
tRp60
ag6
(g8
S'\x00\x00\x00\x00\x00\x00\x00\x00'
tRp61
ag6
(g8
S'\x00\x00\x00\x00\x00\x00\x00\x00'
tRp62
ag6
(g8
S'\xcd\xcc\xcc\xcc\xcc\xcc\xd0?'
tRp63
ag6
(g8
S'\x00\x00\x00\x00\x00\x00\x00\x00'
tRp64
ag6
(g8
S'\x00\x00\x00\x00\x00\x00\x00\x00'
tRp65
ag6
(g8
S'\x00\x00\x00\x00\x00\x00\x00\x00'
tRp66
ag6
(g8
S'\x00\x00\x00\x00\x00\x00\x00\x00'
tRp67
ag6
(g8
S'\x00\x00\x00\x00\x00\x00\x00\x00'
tRp68
ag6
(g8
S'\x00\x00\x00\x00\x00\x00\x00\x00'
tRp69
ag6
(g8
S'H\xb4\xc2\xe6@\xa2\xb5?'
tRp70
ag6
(g8
S'\xd8P^Cy\r\xd5?'
tRp71
ag6
(g8
S'\x00\x00\x00\x00\x00\x00\x00\x00'
tRp72
ag6
(g8
S'\x00\x00\x00\x00\x00\x00\xd0?'
tRp73
ag6
(g8
S'\x00\x00\x00\x00\x00\x00\x00\x00'
tRp74
ag6
(g8
S'\x00\x00\x00\x00\x00\x00\x00\x00'
tRp75
ag6
(g8
S'\x00\x00\x00\x00\x00\x00\x00\x00'
tRp76
ag6
(g8
S'\x00\x00\x00\x00\x00\x00\x00\x00'
tRp77
ag6
(g8
S'\x00\x00\x00\x00\x00\x00\x00\x00'
tRp78
ag6
(g8
S'\x00\x00\x00\x00\x00\x00\x00\x00'
tRp79
ag6
(g8
S'\x00\x00\x00\x00\x00\x00\x00\x00'
tRp80
ag6
(g8
S'\x00\x00\x00\x00\x00\x00\x00\x00'
tRp81
ag6
(g8
S'\x00\x00\x00\x00\x00\x00\x00\x00'
tRp82
ag6
(g8
S'\x00\x00\x00\x00\x00\x00\x00\x00'
tRp83
ag6
(g8
S'\x00\x00\x00\x00\x00\x00\x00\x00'
tRp84
ag6
(g8
S'\x00\x00\x00\x00\x00\x00\x00\x00'
tRp85
ag6
(g8
S'X|\xc5W|\xc5\xd7?'
tRp86
ag6
(g8
S'\x00\x00\x00\x00\x00\x00\x00\x00'
tRp87
ag6
(g8
S'\xc2\x14\xf9\xac\x1bL\xd1?'
tRp88
ag6
(g8
S'\x00\x00\x00\x00\x00\x00\x00\x00'
tRp89
ag6
(g8
S'\x00\x00\x00\x00\x00\x00\x00\x00'
tRp90
ag6
(g8
S",\xf74\xc2rO'@"
tRp91
ag6
(g8
S'\xc9g\xdd`\x8a\xfc8@'
tRp92
ag6
(g8
S'S\xe4\xb3n0E"@'
tRp93
ag6
(g8
S'\x00\x00\x00\x00\x00\x802@'
tRp94
ag6
(g8
S'\x00\x00\x00\x00\x00\x00\x00\x00'
tRp95
ag6
(g8
S'\x00\x00\x00\x00\x00\x00\x00\x00'
tRp96
ag6
(g8
S'\x1b\xcak(\xaf\xa1\xcc?'
tRp97
ag6
(g8
S'\xd8P^Cy\r\xf1?'
tRp98
ag6
(g8
S'\x00\x00\x00\x00\x00\x00\x00\x00'
tRp99
ag6
(g8
S'\x00\x00\x00\x00\x00\x00\x00\x00'
tRp100
ag6
(g8
S'\x00\x00\x00\x00\x00\x00\x00\x00'
tRp101
ag6
(g8
S'\x00\x00\x00\x00\x00\x00\x00\x00'
tRp102
ag6
(g8
S'\x00\x00\x00\x00\x00\x00\x00\x00'
tRp103
ag6
(g8
S'\x00\x00\x00\x00\x00\x00\x00\x00'
tRp104
ag6
(g8
S'\x00\x00\x00\x00\x00\x00\x00\x00'
tRp105
ag6
(g8
S')\\\x8f\xc2\xf5($@'
tRp106
ag6
(g8
S'\x87\xf2\x1a\xcak(\x17@'
tRp107
ag6
(g8
S'$\xb8\x8f\xe0>\x82#@'
tRp108
ag6
(g8
S'\xe55\x94\xd7P\x1e6@'
tRp109
ag6
(g8
S'^Cy\r\xe5\xb55@'
tRp110
ag6
(g8
S'l(\xaf\xa1\xbcF0@'
tRp111
ag6
(g8
S'\x9c\x9b\x9b\x9b\x9b\x9b\xcb?'
tRp112
ag6
(g8
S'\x00\x00\x00\x00\x00\x00\x00\x00'
tRp113
ag6
(g8
S'\x00\x00\x00\x00\x00\x00\x00\x00'
tRp114
ag6
(g8
S'\x00\x00\x00\x00\x00\x00\x00\x00'
tRp115
ag6
(g8
S'\x00\x00\x00\x00\x00\x00\x00\x00'
tRp116
ag6
(g8
S'\x00\x00\x00\x00\x00\x00\x00\x00'
tRp117
ag6
(g8
S'\xd8P^Cy\r\xd5?'
tRp118
ag6
(g8
S'F\x17]t\xd1E\xc7?'
tRp119
ag6
(g8
S'\x00\x00\x00\x00\x00\x00\x00\x00'
tRp120
ag6
(g8
S'\x00\x00\x00\x00\x00\x00\x00\x00'
tRp121
ag6
(g8
S'\xd9\x89\x9d\xd8\x89\x9d\xc8?'
tRp122
ag6
(g8
S'\x00\x00\x00\x00\x00\x00\x00\x00'
tRp123
ag6
(g8
S'\x00\x00\x00\x00\x00\x00\x00\x00'
tRp124
ag6
(g8
S'\x00\x00\x00\x00\x00\x00\x00\x00'
tRp125
ag6
(g8
S'\x00\x00\x00\x00\x00\x00\x00\x00'
tRp126
ag6
(g8
S'\x00\x00\x00\x00\x00\x00\x00\x00'
tRp127
ag6
(g8
S'\x00\x00\x00\x00\x00\x00\x00\x00'
tRp128
ag6
(g8
S'\x00\x00\x00\x00\x00\x00\x00\x00'
tRp129
ag6
(g8
S'\x00\x00\x00\x00\x00\x00\x00\x00'
tRp130
ag6
(g8
S'\xe55\x94\xd7P~@@'
tRp131
ag6
(g8
S'^Cy\r\xe5\xb5,@'
tRp132
ag6
(g8
S'\x00\x00\x00\x00\x00\x00\x00\x00'
tRp133
ag6
(g8
S'\x00\x00\x00\x00\x00\x00\x00\x00'
tRp134
ag6
(g8
S'\x00\x00\x00\x00\x00\x00\x00\x00'
tRp135
ag6
(g8
S'\x00\x00\x00\x00\x00\x00\x00\x00'
tRp136
ag6
(g8
S'\x00\x00\x00\x00\x00\x00\x00\x00'
tRp137
ag6
(g8
S'\xa1\xbd\x84\xf6\x12\xda\x13@'
tRp138
ag6
(g8
S'\x00\x00\x00\x00\x00\x00\x00\x00'
tRp139
ag6
(g8
S'\x00\x00\x00\x00\x00\x00\x00\x00'
tRp140
ag6
(g8
S'\x00\x00\x00\x00\x00\x00\x00\x00'
tRp141
ag6
(g8
S'\x00\x00\x00\x00\x00\x00\x00\x00'
tRp142
ag6
(g8
S'\x00\x00\x00\x00\x00\x00\x00\x00'
tRp143
ag6
(g8
S'\x00\x00\x00\x00\x00\x00\x00\x00'
tRp144
ag6
(g8
S'\x00\x00\x00\x00\x00\x00\x00\x00'
tRp145
ag6
(g8
S'\x00\x00\x00\x00\x00\x00\x00\x00'
tRp146
ag6
(g8
S'\xe48\x8e\xe38\x8e\xd3?'
tRp147
ag6
(g8
S'\x00\x00\x00\x00\x00\x00\x00\x00'
tRp148
ag6
(g8
S'5\xb0wL\r\xec\xbd?'
tRp149
ag6
(g8
S'\x00\x00\x00\x00\x00\x00\x00\x00'
tRp150
ag6
(g8
S'\xfd\xae\x167a~\xd7?'
tRp151
ag6
(g8
S'\xd8P^Cy\r\xd5?'
tRp152
ag6
(g8
S'\x00\x00\x00\x00\x00\x00\x00\x00'
tRp153
ag6
(g8
S'\x00\x00\x00\x00\x00\x00\x00\x00'
tRp154
ag6
(g8
S'\x00\x00\x00\x00\x00\x00\x00\x00'
tRp155
ag6
(g8
S'\x00\x00\x00\x00\x00\x00\x00\x00'
tRp156
ag6
(g8
S']t\xd1E\x17]\x1f@'
tRp157
ag6
(g8
S'(\xaf\xa1\xbc\x86\xf2\n@'
tRp158
ag6
(g8
S'Cy\r\xe55\x94\x11@'
tRp159
ag6
(g8
S'\xef\xee\xee\xee\xee\xee\x06@'
tRp160
ag6
(g8
S'\x00\x00\x00\x00\x00\x00\x00\x00'
tRp161
ag6
(g8
S'\x00\x00\x00\x00\x00\x00\x00\x00'
tRp162
ag6
(g8
S'\x00\x00\x00\x00\x00\x00\x00\x00'
tRp163
ag6
(g8
S'\x11B\x08!\x84\x10\x02@'
tRp164
ag6
(g8
S'\x00\x00\x00\x00\x00\x00\x00\x00'
tRp165
ag6
(g8
S'\x00\x00\x00\x00\x00\x00\x00\x00'
tRp166
ag6
(g8
S'\x00\x00\x00\x00\x00\x00\x00\x00'
tRp167
ag6
(g8
S'\x00\x00\x00\x00\x00\x00\x00\x00'
tRp168
ag6
(g8
S'\x00\x00\x00\x00\x00\x00\x00\x00'
tRp169
ag6
(g8
S'dj`\xef\x98\x1a\xf8?'
tRp170
ag6
(g8
S'\xcfb:\x8b\xe9,\x1e@'
tRp171
ag6
(g8
S'\xa4p=\n\xd7\xa3(@'
tRp172
ag6
(g8
S'\xf9\xc5\x92_,\xf9%@'
tRp173
ag6
(g8
S'\xe55\x94\xd7P^\x1b@'
tRp174
ag6
(g8
S'jW\xa2v%j\x1b@'
tRp175
ag6
(g8
S'<\xa6\x06\xf6\x8e\xa9\x1d@'
tRp176
ag6
(g8
S'*\xf2Y7\x98"0@'
tRp177
ag6
(g8
S'UUUUUU\x19@'
tRp178
ag6
(g8
S'%I\x92$I\x92\xd4?'
tRp179
ag6
(g8
S'\x00\x00\x00\x00\x00\xc0\x19@'
tRp180
ag6
(g8
S'\x00\x00\x00\x00\x00\x00\xe0?'
tRp181
ag6
(g8
S'\nqV~B\x9c\xc5?'
tRp182
ag6
(g8
S'\xbe\xe5[\xbe\xe5[\xde?'
tRp183
ag6
(g8
S'\x1cL\x91\xcf\xba\xc1\xd4?'
tRp184
ag6
(g8
S'\x13\xb5+Q\xbb\x12\xd5?'
tRp185
ag6
(g8
S'UUUUUU\xd5?'
tRp186
ag6
(g8
S'\x18\x86a\x18\x86a\xf0?'
tRp187
ag6
(g8
S'\xf9\x96o\xf9\x96o\xd9?'
tRp188
ag6
(g8
S'\x82\xbdcj`\xef\xd8?'
tRp189
ag6
(g8
S"vb'vb'\xd6?"
tRp190
ag6
(g8
S'\nqV~B\x9c\xd5?'
tRp191
ag6
(g8
S'^-n\xc2\xfc\xae\xd6?'
tRp192
ag6
(g8
S'\x11\x11\x11\x11\x11\x11\xa1?'
tRp193
ag6
(g8
S"b'vb'v\xe2?"
tRp194
ag6
(g8
S'\x90\x06i\x90\x06i\xe0?'
tRp195
ag6
(g8
S'\xec\x1dS\x03{\xc7\xd4?'
tRp196
ag6
(g8
S';\xb1\x13;\xb1\x13\xdb?'
tRp197
ag6
(g8
S'(\xaf\xa1\xbc\x86\xf2\xda?'
tRp198
ag6
(g8
S'\x00\x00\x00\x00\x00\x00\x00\x00'
tRp199
ag6
(g8
S'\x00\x00\x00\x00\x00\x00\x00\x00'
tRp200
ag6
(g8
S'\xb8|\xcb\xb7|\xcb\xd7?'
tRp201
ag6
(g8
S'\\\xbe\xe5[\xbe\xe5\xdb?'
tRp202
ag6
(g8
S'h *\x1d\xd93\xd0?'
tRp203
ag6
(g8
S'UUUUUU\xd5?'
tRp204
ag6
(g8
S'\x00\x00\x00\x00\x00\x00\x00\x00'
tRp205
ag6
(g8
S'\x00\x00\x00\x00\x00\x00\x00\x00'
tRp206
ag6
(g8
S'\x00\x00\x00\x00\x00\x00\x00\x00'
tRp207
ag6
(g8
S'\x834H\x834H\x13@'
tRp208
ag6
(g8
S'\r\xd2 \r\xd2 %@'
tRp209
ag6
(g8
S'\nqV~B\x9c\xd5?'
tRp210
ag6
(g8
S'h *\x1d\xd93\xe0?'
tRp211
ag6
(g8
S'(\xaf\xa1\xbc\x86\xf2\xba?'
tRp212
ag6
(g8
S'\x00\x00\x00\x00\x00\x00\x00\x00'
tRp213
ag6
(g8
S'F\x17]t\xd1E\xb7?'
tRp214
ag6
(g8
S'\\\xd9\xe7\x90\x9a`\xdc?'
tRp215
ag6
(g8
S'\x00\x00\x00\x00\x00\x00\x00\x00'
tRp216
ag6
(g8
S'\x19\x19\x19\x19\x19\x19\xd9?'
tRp217
ag6
(g8
S'\x00\x00\x00\x00\x00\x00\x00\x00'
tRp218
ag6
(g8
S'\x00\x00\x00\x00\x00\x00\x00\x00'
tRp219
ag6
(g8
S'\x00\x00\x00\x00\x00\x00\x00\x00'
tRp220
ag6
(g8
S'\x00\x00\x00\x00\x00\x00\xd0?'
tRp221
ag6
(g8
S'5H\x834H\x83\xd4?'
tRp222
ag6
(g8
S'5H\x834H\x83\xd4?'
tRp223
ag6
(g8
S'\x1a\xa4A\x1a\xa4A\xf2?'
tRp224
ag6
(g8
S'\r\xd2 \r\xd2 \xfd?'
tRp225
ag6
(g8
S'!\xce\xcaO\x88\xb3$@'
tRp226
ag6
(g8
S'33333C8@'
tRp227
ag6
(g8
S'\xcf\xf3<\xcf\xf3<-@'
tRp228
ag6
(g8
S'\x93\xe8=\x93\xe8=9@'
tRp229
ag6
(g8
S'\x18\xf4\x05}A_7@'
tRp230
ag6
(g8
S'r\xb6\xe1M\\\x80U@'
tRp231
ag6
(g8
S'\xe2\xa4\xee\xcbc\xab;@'
tRp232
ag6
(g8
S'\x00\x00\x00\x00\x00\x00\x1c@'
tRp233
ag6
(g8
S'\x07i\x90\x06i\x90\x1e@'
tRp234
ag6
(g8
S'ylE\xd0pR\xe7?'
tRp235
ag6
(g8
S'\xe55\x94\xd7P^\x19@'
tRp236
ag6
(g8
S'\xf3-\xdf\xf2-\xdf2@'
tRp237
ag6
(g8
S'r\x1c\xc7q\x1c\x07 @'
tRp238
ag6
(g8
S'\xc6\x96\xe0\xdb\xfc\x15@@'
tRp239
ag6
(g8
S'\xddU\x8a\t\xba\xabR@'
tRp240
ag6
(g8
S'\x00\x00\x00\x00\x00\x00\x00\x00'
tRp241
ag6
(g8
S'1\xbf\xab\xc5MXA@'
tRp242
ag6
(g8
S'\xe0.\xf5d\xfcv\xf9?'
tRp243
ag6
(g8
S'\xe48\x8e\xe38\x8e\x03@'
tRp244
ag6
(g8
S'\x92\x82\xc9\x1c\x04\xdcA@'
tRp245
ag6
(g8
S'\x866\xae\xfa\x07\xf4M@'
tRp246
ag6
(g8
S'R*s\xfa\x87|C@'
tRp247
ag6
(g8
S'\xc8B\x16\xb2\x90\x85:@'
tRp248
ag6
(g8
S'\x14;\xb1\x13;\xb1\xd3?'
tRp249
ag6
(g8
S'\xf3-\xdf\xf2-\xdf\xd2?'
tRp250
ag6
(g8
S'\xeaMoz\xd3\x9b\xde?'
tRp251
ag6
(g8
S'\xf2V\xf69\xa4&\xd8?'
tRp252
ag6
(g8
S'\xbecj`\xef\x98\xba?'
tRp253
ag6
(g8
S'\x87\xf2\x1a\xcak(\xff?'
tRp254
ag6
(g8
S'\x9f\xf4I\x9f\xf4I\xdf?'
tRp255
ag6
(g8
S'T:\xb2g *\xdd?'
tRp256
ag6
(g8
S'\xcak(\xaf\xa1\xbc\xf6?'
tRp257
ag6
(g8
S'1\xbf\xab\xc5M\x98\xdf?'
tRp258
ag6
(g8
S'\x15s\xab3R1\xf7?'
tRp259
ag6
(g8
S'{\xc7\xd4\xc0\xde1\xf5?'
tRp260
ag6
(g8
S'kq\x13\xe6w\xb5\xf8?'
tRp261
ag6
(g8
S'!\r\xd2 \r\xd2\xe0?'
tRp262
ag6
(g8
S'\x1a\xa4A\x1a\xa4A\xba?'
tRp263
ag6
(g8
S"\xe5'\xc4Y\xf9\t\xf1?"
tRp264
ag6
(g8
S'B\x1a\xa4A\x1a\xa4\xe1?'
tRp265
ag6
(g8
S'\x0f\x0f\x0f\x0f\x0f\x0f\xef?'
tRp266
ag6
(g8
S'!\r\xd2 \r\xd2\xe0?'
tRp267
ag6
(g8
S"'vb'vb\xe7?"
tRp268
ag6
(g8
S'UUUUUU\xe5?'
tRp269
ag6
(g8
S'/\xa1\xbd\x84\xf6\x12\n@'
tRp270
ag6
(g8
S'ffffff)@'
tRp271
ag6
(g8
S'\xbc\xbb\xbb\xbb\xbb\xbb\xeb?'
tRp272
ag6
(g8
S'\x00\x00\x00\x00\x00\x00\x1c@'
tRp273
ag6
(g8
S'W\xa2v%jW\xf2?'
tRp274
ag6
(g8
S'\x00\x00\x00\x00\x00\x00\xe4?'
tRp275
ag6
(g8
S'\xf4\x9b\xadC\xbf\xd9\x12@'
tRp276
ag6
(g8
S'\x9c0\xbf\xab\xc5M\xd8?'
tRp277
ag6
(g8
S'\x9a4i\xd2\xa4I\xf3?'
tRp278
ag6
(g8
S'\xcf\xf3<\xcf\xf3<\xef?'
tRp279
ag6
(g8
S'\x00\x00\x00\x00\x00\x00\xf0?'
tRp280
ag6
(g8
S'\xe6w\xb5\xb8\t\xf3\xfb?'
tRp281
ag6
(g8
S'\xaf\x167a~W\xfb?'
tRp282
ag6
(g8
S'\xaf\x167a~W\xfb?'
tRp283
ag6
(g8
S'i\x90\x06i\x90\x06\x01@'
tRp284
ag6
(g8
S'\xb8\x1e\x85\xebQ\xb8\xfe?'
tRp285
ag6
(g8
S'i\xea\xfc\xdaC.\xfb?'
tRp286
ag6
(g8
S'------\xfd?'
tRp287
ag6
(g8
S'\xec\xc4N\xec\xc4N\xfc?'
tRp288
ag6
(g8
S'f\xc5@\to4\xf5?'
tRp289
ag6
(g8
S'Y1P\xc2\x1bM\r@'
tRp290
ag6
(g8
S'\xe6w\xb5\xb8\t\xf3\xfb?'
tRp291
ag6
(g8
S"\xfcv\xa9'\xe3\xb7\xfb?"
tRp292
ag6
(g8
S'\xbc\xc7{\xbc\xc7{\xfc?'
tRp293
ag6
(g8
S'\x17\x0e\xa2\xc7w\xe1\xf0?'
tRp294
ag6
(g8
S'\xd6\x945eMY\x0b@'
tRp295
ag6
(g8
S'\x13\xe6w\xb5\xb8\t\xf3?'
tRp296
ag6
(g8
S'\xa4\x1f\xfd\xe8G?\n@'
tRp297
ag6
(g8
S'333333\xf3?'
tRp298
ag6
(g8
S'r\x1c\xc7q\x1c\xc7\xfb?'
tRp299
ag6
(g8
S'\xf4\xf3\xf3\xf3\xf3\xf3\xe3?'
tRp300
ag6
(g8
S'O\xec\xc4N\xec\xc4\x12@'
tRp301
ag6
(g8
S'\x00\x00\x00\x00\x00\x00\xec?'
tRp302
ag6
(g8
S'\x9a\x99\x99\x99\x99\x99\xed?'
tRp303
ag6
(g8
S'\x912\xf0tk~\xe8?'
tRp304
ag6
(g8
S'\xa6r\xdd\xf1bK\xe0?'
tRp305
ag6
(g8
S'\x00\x00\x00\x00\x00\x00\x00\x00'
tRp306
ag6
(g8
S'\x00\x00\x00\x00\x00\x00\x00\x00'
tRp307
ag6
(g8
S'Cy\r\xe55\x94\xd7?'
tRp308
ag6
(g8
S'\x00\x00\x00\x00\x00\x00\x00\x00'
tRp309
ag6
(g8
S'\x00\x00\x00\x00\x00\x00\x00\x00'
tRp310
ag6
(g8
S'\x00\x00\x00\x00\x00\x00\x00\x00'
tRp311
ag6
(g8
S'\x00\x00\x00\x00\x00\x00\x00\x00'
tRp312
ag6
(g8
S'\x00\x00\x00\x00\x00\x00\x00\x00'
tRp313
ag6
(g8
S'\x00\x00\x00\x00\x00\x00\x00\x00'
tRp314
ag6
(g8
S'tK\x9c\xfa=\xb7\xf4?'
tRp315
ag6
(g8
S'ffffff\xe6?'
tRp316
ag6
(g8
S'\xf8\xde{\xef\xbd\xf7\xde?'
tRp317
ag6
(g8
S'\xe9\xa2\x8b.\xba\xe8\xe6?'
tRp318
ag6
(g8
S'\x00\x00\x00\x00\x00\x00\x00\x00'
tRp319
ag6
(g8
S'\x00\x00\x00\x00\x00\x00\x00\x00'
tRp320
ag6
(g8
S'\x00\x00\x00\x00\x00\x00\x00\x00'
tRp321
ag6
(g8
S'\x00\x00\x00\x00\x00\x00\x00\x00'
tRp322
ag6
(g8
S'\x00\x00\x00\x00\x00\x00\x00\x00'
tRp323
ag6
(g8
S'\x00\x00\x00\x00\x00\x00\x00\x00'
tRp324
ag6
(g8
S'\x00\x00\x00\x00\x00\x00\xd0?'
tRp325
ag6
(g8
S'UUUUUU\xfd?'
tRp326
ag6
(g8
S'{\t\xed%\xb4\x97\xe0?'
tRp327
ag6
(g8
S'\x00\x00\x00\x00\x00\x00\x00\x00'
tRp328
ag6
(g8
S'\x00\x00\x00\x00\x00\x00\x00\x00'
tRp329
ag6
(g8
S'\xc8\xe0|\x0c\xce\xc7\xf0?'
tRp330
ag6
(g8
S'\x00\x00\x00\x00\x00\x00\xf0?'
tRp331
ag6
(g8
S'\xa9]\x89\xda\x95\xa8\x01@'
tRp332
ag6
(g8
S'\xdd\x9a\x1f\x16)\x03\x0f@'
tRp333
ag6
(g8
S'\x9c\x8f\xc1\xf9\x18\x9c7@'
tRp334
ag6
(g8
S'\xd9\x89\x9d\xd8\x89\x9d\xc8?'
tRp335
ag6
(g8
S'I\x92$I\x92$\r@'
tRp336
ag6
(g8
S'\x00\x00\x00\x00\x00\x00\x00\x00'
tRp337
ag6
(g8
S'\xc30\x0c\xc30\x0c\xfd?'
tRp338
ag6
(g8
S'\x90\x06i\x90\x06i\xf0?'
tRp339
ag6
(g8
S'?\xfd\xf4\xd3O?\xfd?'
tRp340
ag6
(g8
S'\x00\x00\x00\x00\x00\x00\x00\x00'
tRp341
ag6
(g8
S'\xb7m\xdb\xb6m\xdb\x06@'
tRp342
ag6
(g8
S'\x00\x00\x00\x00\x00\x00\x00\x00'
tRp343
ag6
(g8
S'\xe7cp>\x06\xe7"@'
tRp344
ag6
(g8
S'\x955eMYS\x06@'
tRp345
ag6
(g8
S'\x00\x00\x00\x00\x00\x00\x00\x00'
tRp346
ag6
(g8
S'b\x18\x86a\x18\x86\xf1?'
tRp347
ag6
(g8
S'\xbc\xbb\xbb\xbb\xbb\xbb\x0f@'
tRp348
ag6
(g8
S'\tE(B\x11\x8a\x00@'
tRp349
ag6
(g8
S'\x00\x00\x00\x00\x00\x00\x00\x00'
tRp350
ag6
(g8
S'\xfa\x18\x9c\x8f\xc1\xf9\xc8?'
tRp351
ag6
(g8
S'\x00\x00\x00\x00\x00\x00\xf0?'
tRp352
ag6
(g8
S"vb'vb'\xd6?"
tRp353
ag6
(g8
S'\x00\x00\x00\x00\x00\x00\x00\x00'
tRp354
ag6
(g8
S'\x00\x00\x00\x00\x00\x00\x00\x00'
tRp355
ag6
(g8
S'\xfa\xf9\xf9\xf9\xf9\xf9\x01@'
tRp356
ag6
(g8
S'E\xedJ\xd4\xaeD\xed?'
tRp357
ag6
(g8
S'\x00\x00\x00\x00\x00\x00\x00\x00'
tRp358
ag6
(g8
S'rrrrrr\xe2?'
tRp359
ag6
(g8
S'Z\x9eD\xa6a\xbb\xe9?'
tRp360
asS'missed'
p361
(lp362
L0L
aL0L
aL1L
aL0L
aL0L
aL0L
aL0L
aL0L
aL0L
aL1L
aL2L
aL4L
aL1L
aL1L
aL0L
aL0L
aL2L
aL1L
aL0L
aL0L
aL0L
aL0L
aL2L
aL1L
aL0L
aL0L
aL0L
aL0L
aL0L
aL0L
aL3L
aL4L
aL2L
aL21L
aL29L
aL22L
aL0L
aL8L
aL0L
aL32L
aL0L
aL0L
aL0L
aL0L
aL3L
aL0L
aL0L
aL0L
aL0L
aL1L
aL19L
aL15L
aL0L
aL0L
aL0L
aL0L
aL0L
aL0L
aL0L
aL0L
aL1L
aL0L
aL0L
aL1L
aL2L
aL1L
aL2L
aL1L
aL0L
aL0L
aL0L
aL0L
aL0L
aL0L
aL0L
aL0L
aL0L
aL0L
aL0L
aL0L
aL0L
aL0L
aL33L
aL31L
aL48L
aL37L
aL0L
aL0L
aL1L
aL5L
aL0L
aL0L
aL0L
aL1L
aL0L
aL0L
aL0L
aL45L
aL5L
aL14L
aL31L
aL32L
aL37L
aL3L
aL0L
aL0L
aL0L
aL1L
aL1L
aL0L
aL0L
aL0L
aL0L
aL0L
aL1L
aL0L
aL0L
aL0L
aL0L
aL0L
aL0L
aL0L
aL22L
aL39L
aL0L
aL0L
aL0L
aL0L
aL0L
aL40L
aL0L
aL0L
aL0L
aL0L
aL0L
aL0L
aL1L
aL2L
aL0L
aL1L
aL1L
aL1L
aL0L
aL1L
aL1L
aL2L
aL0L
aL0L
aL22L
aL20L
aL19L
aL24L
aL0L
aL1L
aL1L
aL1L
aL2L
aL1L
aL1L
aL1L
aL1L
aL1L
aL24L
aL21L
aL23L
aL29L
aL33L
aL31L
aL15L
aL26L
aL1L
aL2L
aL1L
aL0L
aL1L
aL2L
aL2L
aL1L
aL10L
aL0L
aL1L
aL0L
aL0L
aL2L
aL0L
aL0L
aL0L
aL0L
aL1L
aL0L
aL0L
aL0L
aL0L
aL0L
aL0L
aL0L
aL2L
aL0L
aL2L
aL39L
aL13L
aL1L
aL0L
aL1L
aL1L
aL0L
aL1L
aL1L
aL0L
aL0L
aL1L
aL0L
aL0L
aL0L
aL1L
aL8L
aL8L
aL45L
aL29L
aL33L
aL62L
aL36L
aL135L
aL54L
aL2L
aL28L
aL25L
aL13L
aL33L
aL5L
aL69L
aL43L
aL1L
aL19L
aL10L
aL4L
aL85L
aL150L
aL172L
aL35L
aL2L
aL1L
aL0L
aL5L
aL2L
aL1L
aL2L
aL0L
aL0L
aL1L
aL3L
aL1L
aL5L
aL2L
aL2L
aL1L
aL2L
aL5L
aL1L
aL0L
aL0L
aL9L
aL51L
aL1L
aL6L
aL1L
aL2L
aL1L
aL2L
aL0L
aL1L
aL5L
aL0L
aL0L
aL0L
aL0L
aL0L
aL0L
aL3L
aL0L
aL3L
aL0L
aL0L
aL0L
aL2L
aL2L
aL0L
aL0L
aL2L
aL1L
aL0L
aL1L
aL8L
aL1L
aL1L
aL0L
aL1L
aL0L
aL0L
aL4L
aL0L
aL0L
aL0L
aL0L
aL0L
aL0L
aL6L
aL6L
aL3L
aL3L
aL4L
aL1L
aL1L
aL3L
aL1L
aL2L
aL7L
aL3L
aL1L
aL0L
aL1L
aL0L
aL0L
aL10L
aL1L
aL38L
aL1L
aL6L
aL1L
aL2L
aL0L
aL1L
aL0L
aL0L
aL0L
aL13L
aL1L
aL1L
aL2L
aL2L
aL0L
aL0L
aL1L
aL4L
aL0L
aL0L
aL1L
aL2L
aL1L
aL0L
aL0L
aL1L
asS'history_length'
p363
I4
sS'recall'
p364
(lp365
I1
aI1
aF0
aF1
aI1
aI1
aF1
aF1
aI1
aF0.75
aF0.5
aF0.55555555555555558
aF0
aF0
aI1
aI1
aF0.33333333333333331
aF0
aI1
aI1
aI1
aI1
aF0.5
aF0
aI1
aI1
aI1
aI1
aI1
aF1
aF0.40000000000000002
aF0.63636363636363635
aF0.59999999999999998
aF0.58823529411764708
aF0.45283018867924529
aF0.55102040816326525
aI1
aF0.20000000000000001
aF1
aF0.39622641509433965
aF1
aF1
aI1
aI1
aF0.625
aI1
aI1
aI1
aI1
aF0
aF0.38709677419354838
aF0.5
aI1
aI1
aF1
aI1
aI1
aI1
aI1
aI1
aF0
aF1
aF1
aF0
aF0.33333333333333331
aF0
aF0
aF0
aI1
aI1
aI1
aI1
aI1
aI1
aI1
aI1
aI1
aF1
aI1
aF1
aI1
aI1
aF0.55405405405405406
aF0.58108108108108103
aF0.35135135135135137
aF0.5
aI1
aI1
aF0.5
aF0.375
aI1
aI1
aI1
aF0
aI1
aI1
aI1
aF0.375
aF0.66666666666666663
aF0.58823529411764708
aF0.56944444444444442
aF0.55555555555555558
aF0.4861111111111111
aF0.25
aI1
aI1
aI1
aF0
aF0
aF1
aF1
aI1
aI1
aF1
aF0
aI1
aI1
aI1
aI1
aI1
aI1
aI1
aF0.69444444444444442
aF0.45833333333333331
aI1
aI1
aI1
aI1
aI1
aF0.2982456140350877
aI1
aI1
aI1
aI1
aI1
aI1
aF0
aF0
aF1
aF0
aF0.5
aF0
aF1
aF0.5
aF0
aF0
aI1
aI1
aF0.45000000000000001
aF0.39393939393939392
aF0.42424242424242425
aF0.27272727272727271
aI1
aF0
aF0
aF0.8571428571428571
aF0
aF0
aF0
aF0
aF0
aF0.83333333333333337
aF0.44186046511627908
aF0.5625
aF0.52083333333333337
aF0.39583333333333331
aF0.36538461538461536
aF0.39215686274509803
aF0.69387755102040816
aF0.42222222222222222
aF0.5
aF0.88235294117647056
aF0.5
aF1
aF0.5
aF0.33333333333333331
aF0.33333333333333331
aF0.66666666666666663
aF0.33333333333333331
aF1
aF0.5
aF1
aF1
aF0.33333333333333331
aF1
aF1
aF1
aF1
aF0.66666666666666663
aF1
aI1
aI1
aF1
aF1
aF1
aF1
aF0
aI1
aF0
aF0.31578947368421051
aF0.60606060606060608
aF0.5
aF1
aF0.5
aF0
aF1
aF0.66666666666666663
aF0
aF1
aI1
aF0
aI1
aF1
aF1
aF0.5
aF0.46666666666666667
aF0.46666666666666667
aF0.375
aF0.59154929577464788
aF0.51470588235294112
aF0.49180327868852458
aF0.55000000000000004
aF0.55149501661129563
aF0.50909090909090904
aF0.875
aF0.37777777777777777
aF0.13793103448275862
aF0.5
aF0.52173913043478259
aF0.76190476190476186
aF0.49635036496350365
aF0.77604166666666663
aF0
aF0.79347826086956519
aF0.375
aF0.63636363636363635
aF0.5114942528735632
aF0.47735191637630664
aF0.38790035587188609
aF0.6067415730337079
aF0.59999999999999998
aF0.5
aF1
aF0.16666666666666666
aF0.5
aF0.80000000000000004
aF0.33333333333333331
aF1
aF1
aF0.5
aF0.66666666666666663
aF0.75
aF0.5
aF0.33333333333333331
aF0.33333333333333331
aF0.66666666666666663
aF0.33333333333333331
aF0.2857142857142857
aF0.5
aF1
aF1
aF0.55000000000000004
aF0.42696629213483145
aF0.66666666666666663
aF0.72727272727272729
aF0.83333333333333337
aF0.5
aF0.90909090909090906
aF0.33333333333333331
aF1
aF0.66666666666666663
aF0.2857142857142857
aF1
aF1
aF1
aF1
aF1
aF1
aF0.5714285714285714
aF1
aF0.5714285714285714
aF1
aF1
aF1
aF0.59999999999999998
aF0.59999999999999998
aF1
aF1
aF0.77777777777777779
aF0.66666666666666663
aF1
aF0.5
aF0.57894736842105265
aF0.66666666666666663
aF0.66666666666666663
aF1
aF0.5
aI1
aI1
aF0.20000000000000001
aI1
aI1
aI1
aI1
aI1
aI1
aF0.33333333333333331
aF0.25
aF0.25
aF0.40000000000000002
aF0
aF0
aF0
aF0
aF0
aF0
aF0.125
aF0.5
aF0.5
aI1
aF0
aF1
aF1
aF0.375
aF0.93333333333333335
aF0.53658536585365857
aF0.5
aF0.5714285714285714
aF0
aF0.7142857142857143
aF1
aF0.80000000000000004
aI1
aF1
aI1
aF0.61764705882352944
aF0.80000000000000004
aF0
aF0.5
aF0.77777777777777779
aF1
aI1
aF0.5
aF0.42857142857142855
aF1
aI1
aF0
aF0.66666666666666663
aF0.66666666666666663
aI1
aF1
aF0.75
asS'durations'
p366
(lp367
F0.00077390670776367188
aF0.00011587142944335938
aF0.0078661441802978516
aF0.015134096145629883
aF0.0069739818572998047
aF0.0085489749908447266
aF0.0028889179229736328
aF0.00811004638671875
aF0.013512134552001953
aF0.0037579536437988281
aF0.015695095062255859
aF0.021625995635986328
aF0.0074000358581542969
aF0.0070209503173828125
aF0.0080010890960693359
aF0.006420135498046875
aF0.0043499469757080078
aF0.0079751014709472656
aF0.0034551620483398438
aF0.0093481540679931641
aF0.0074319839477539062
aF0.0075819492340087891
aF0.011597871780395508
aF0.0057680606842041016
aF0.008235931396484375
aF0.0063910484313964844
aF0.010715961456298828
aF0.0081391334533691406
aF0.0076680183410644531
aF0.0087559223175048828
aF0.010533809661865234
aF0.037631988525390625
aF0.026128053665161133
aF0.017252922058105469
aF0.011643886566162109
aF0.015180110931396484
aF0.00012516975402832031
aF0.035344123840332031
aF0.011642932891845703
aF0.030840158462524414
aF0.054491043090820312
aF0.0074150562286376953
aF0.00012493133544921875
aF0.020595073699951172
aF0.017005205154418945
aF0.017366886138916016
aF0.020498037338256836
aF0.01511383056640625
aF0.022062063217163086
aF0.025406837463378906
aF0.017554044723510742
aF0.012831926345825195
aF0.0087370872497558594
aF0.017940044403076172
aF0.018203973770141602
aF0.020277976989746094
aF0.01618504524230957
aF0.016347885131835938
aF0.016393899917602539
aF0.019791126251220703
aF0.017853975296020508
aF0.017319202423095703
aF0.020620107650756836
aF0.016034841537475586
aF0.0092902183532714844
aF0.013045072555541992
aF0.019011020660400391
aF0.016588926315307617
aF0.021746158599853516
aF0.016645908355712891
aF0.012236833572387695
aF0.012156963348388672
aF0.013784885406494141
aF0.016623020172119141
aF0.017560005187988281
aF0.020433902740478516
aF0.019715070724487305
aF0.0087251663208007812
aF0.0003490447998046875
aF0.016279935836791992
aF0.020678997039794922
aF0.020091056823730469
aF0.041288852691650391
aF0.011801004409790039
aF0.017857074737548828
aF0.0090470314025878906
aF0.020441055297851562
aF0.016597986221313477
aF0.017689943313598633
aF0.017809152603149414
aF0.015269041061401367
aF0.016453981399536133
aF0.013216972351074219
aF0.02021479606628418
aF0.017608165740966797
aF0.017045021057128906
aF0.016420125961303711
aF0.020560026168823242
aF0.0072309970855712891
aF0.011085033416748047
aF0.022300004959106445
aF0.021517038345336914
aF0.011456012725830078
aF0.025880098342895508
aF0.024915933609008789
aF0.017553091049194336
aF0.020993947982788086
aF0.016592979431152344
aF0.020524978637695312
aF0.018141984939575195
aF0.022469043731689453
aF0.014740943908691406
aF0.00012707710266113281
aF0.016768932342529297
aF0.016911029815673828
aF0.020287036895751953
aF0.016952037811279297
aF0.017111063003540039
aF0.016878128051757812
aF0.016520977020263672
aF0.020807981491088867
aF0.01039886474609375
aF0.015720844268798828
aF0.018491029739379883
aF0.020223140716552734
aF0.016819000244140625
aF0.020143032073974609
aF0.012604951858520508
aF0.017271995544433594
aF0.023278951644897461
aF0.0070929527282714844
aF0.013849973678588867
aF0.00012493133544921875
aF0.020391941070556641
aF0.017071962356567383
aF0.016052961349487305
aF0.016472101211547852
aF0.017076015472412109
aF0.01762700080871582
aF0.01710200309753418
aF0.022638082504272461
aF0.016367912292480469
aF0.025976896286010742
aF0.017913103103637695
aF0.016480207443237305
aF0.017074108123779297
aF0.0046019554138183594
aF5.4121017456054688e-05
aF0.013948917388916016
aF0.022084951400756836
aF0.018111944198608398
aF0.023827791213989258
aF0.00012993812561035156
aF0.021893978118896484
aF0.017500877380371094
aF0.0084559917449951172
aF0.022655963897705078
aF0.017120122909545898
aF0.021481990814208984
aF0.020663022994995117
aF0.018303871154785156
aF0.017774105072021484
aF0.01178288459777832
aF0.022135019302368164
aF0.020797014236450195
aF0.023311853408813477
aF0.019165992736816406
aF0.017525911331176758
aF0.015507936477661133
aF0.017888069152832031
aF0.0036990642547607422
aF0.022952079772949219
aF0.015491008758544922
aF0.022431135177612305
aF0.01961517333984375
aF0.019947052001953125
aF0.023277997970581055
aF0.0033440589904785156
aF0.026722908020019531
aF0.020096063613891602
aF0.018759965896606445
aF0.020483970642089844
aF0.022053003311157227
aF0.018787860870361328
aF0.0040950775146484375
aF0.018638849258422852
aF0.016674995422363281
aF0.016351938247680664
aF0.021753072738647461
aF0.017711877822875977
aF0.00012993812561035156
aF0.0074381828308105469
aF0.016644001007080078
aF0.022822856903076172
aF0.018440008163452148
aF0.025166988372802734
aF0.018509149551391602
aF5.6028366088867188e-05
aF0.013957023620605469
aF0.017289161682128906
aF0.022732973098754883
aF0.02244114875793457
aF0.020396947860717773
aF0.020276784896850586
aF0.016793012619018555
aF0.010555028915405273
aF0.029143095016479492
aF0.018037080764770508
aF0.011105060577392578
aF0.00012993812561035156
aF0.015070915222167969
aF0.00013399124145507812
aF0.0084910392761230469
aF0.025649070739746094
aF0.020468950271606445
aF0.026165962219238281
aF0.024847030639648438
aF0.02328801155090332
aF0.019831180572509766
aF0.035364151000976562
aF0.038150787353515625
aF0.017656087875366211
aF0.10694098472595215
aF0.031182050704956055
aF0.014835834503173828
aF0.022691011428833008
aF0.013463020324707031
aF0.014756917953491211
aF0.020709991455078125
aF0.019613981246948242
aF0.045440912246704102
aF0.097792863845825195
aF0.00014805793762207031
aF0.041726112365722656
aF0.019913911819458008
aF0.01034092903137207
aF0.078635931015014648
aF0.12243413925170898
aF0.11537003517150879
aF0.061383962631225586
aF0.025255918502807617
aF0.022300958633422852
aF0.0074870586395263672
aF0.03213810920715332
aF0.022952079772949219
aF0.017962932586669922
aF0.030725002288818359
aF0.024528026580810547
aF0.018445968627929688
aF0.023912191390991211
aF0.027607917785644531
aF0.019438982009887695
aF0.017467021942138672
aF0.02326202392578125
aF0.018622875213623047
aF0.022975921630859375
aF0.023003816604614258
aF0.01302790641784668
aF0.018895864486694336
aF0.017134904861450195
aF0.02299809455871582
aF0.023375034332275391
aF0.034664154052734375
aF0.0046830177307128906
aF0.018815994262695312
aF0.020905017852783203
aF0.023374795913696289
aF0.028181076049804688
aF0.016793966293334961
aF0.018159151077270508
aF0.021612882614135742
aF0.0088720321655273438
aF0.025063991546630859
aF0.022938013076782227
aF0.02281498908996582
aF0.016934871673583984
aF0.018396139144897461
aF0.023435831069946289
aF0.012977838516235352
aF0.020361185073852539
aF0.024968862533569336
aF0.019495010375976562
aF0.018889904022216797
aF0.021584033966064453
aF0.029001951217651367
aF0.029014110565185547
aF0.022437095642089844
aF0.022812128067016602
aF0.026621818542480469
aF0.020423173904418945
aF0.021701812744140625
aF0.021191120147705078
aF0.013590097427368164
aF0.026056051254272461
aF0.023350954055786133
aF0.027650117874145508
aF0.047614097595214844
aF0.017143964767456055
aF0.021334171295166016
aF0.0094010829925537109
aF0.0076491832733154297
aF0.017931938171386719
aF0.021619796752929688
aF0.021921157836914062
aF0.018479108810424805
aF0.021434783935546875
aF0.022063016891479492
aF0.021573066711425781
aF0.024549007415771484
aF0.024307012557983398
aF0.019225120544433594
aF0.02136993408203125
aF0.019933938980102539
aF0.023612022399902344
aF0.021494150161743164
aF0.025232076644897461
aF0.020555973052978516
aF0.030819177627563477
aF0.024237871170043945
aF0.012441158294677734
aF0.00013303756713867188
aF0.015655040740966797
aF0.027082920074462891
aF0.022999048233032227
aF0.01501011848449707
aF0.023115158081054688
aF0.0077340602874755859
aF0.015755176544189453
aF0.00013899803161621094
aF0.05108189582824707
aF0.019423007965087891
aF0.027200937271118164
aF0.01759791374206543
aF0.001049041748046875
aF0.00012111663818359375
aF0.020668983459472656
aF0.026118993759155273
aF0.023002147674560547
aF0.020744085311889648
aF0.022361040115356445
aF0.029347896575927734
aF0.018074989318847656
aF0.021967887878417969
aF0.025415897369384766
aF0.024399042129516602
aF0.00046992301940917969
aF0.00013899803161621094
aF0.021898984909057617
aF0.022626876831054688
aF0.00013017654418945312
aF0.026140213012695312
aF0.026529788970947266
asS'step'
p368
(lp369
I1
aI2
aI3
aI4
aI5
aI6
aI7
aI8
aI9
aI10
aI11
aI12
aI13
aI14
aI15
aI16
aI17
aI18
aI19
aI20
aI21
aI22
aI23
aI24
aI25
aI26
aI27
aI28
aI29
aI30
aI31
aI32
aI33
aI34
aI35
aI36
aI37
aI38
aI39
aI40
aI41
aI42
aI43
aI44
aI45
aI46
aI47
aI48
aI49
aI50
aI51
aI52
aI53
aI54
aI55
aI56
aI57
aI58
aI59
aI60
aI61
aI62
aI63
aI64
aI65
aI66
aI67
aI68
aI69
aI70
aI71
aI72
aI73
aI74
aI75
aI76
aI77
aI78
aI79
aI80
aI81
aI82
aI83
aI84
aI85
aI86
aI87
aI88
aI89
aI90
aI91
aI92
aI93
aI94
aI95
aI96
aI97
aI98
aI99
aI100
aI101
aI102
aI103
aI104
aI105
aI106
aI107
aI108
aI109
aI110
aI111
aI112
aI113
aI114
aI115
aI116
aI117
aI118
aI119
aI120
aI121
aI122
aI123
aI124
aI125
aI126
aI127
aI128
aI129
aI130
aI131
aI132
aI133
aI134
aI135
aI136
aI137
aI138
aI139
aI140
aI141
aI142
aI143
aI144
aI145
aI146
aI147
aI148
aI149
aI150
aI151
aI152
aI153
aI154
aI155
aI156
aI157
aI158
aI159
aI160
aI161
aI162
aI163
aI164
aI165
aI166
aI167
aI168
aI169
aI170
aI171
aI172
aI173
aI174
aI175
aI176
aI177
aI178
aI179
aI180
aI181
aI182
aI183
aI184
aI185
aI186
aI187
aI188
aI189
aI190
aI191
aI192
aI193
aI194
aI195
aI196
aI197
aI198
aI199
aI200
aI201
aI202
aI203
aI204
aI205
aI206
aI207
aI208
aI209
aI210
aI211
aI212
aI213
aI214
aI215
aI216
aI217
aI218
aI219
aI220
aI221
aI222
aI223
aI224
aI225
aI226
aI227
aI228
aI229
aI230
aI231
aI232
aI233
aI234
aI235
aI236
aI237
aI238
aI239
aI240
aI241
aI242
aI243
aI244
aI245
aI246
aI247
aI248
aI249
aI250
aI251
aI252
aI253
aI254
aI255
aI256
aI257
aI258
aI259
aI260
aI261
aI262
aI263
aI264
aI265
aI266
aI267
aI268
aI269
aI270
aI271
aI272
aI273
aI274
aI275
aI276
aI277
aI278
aI279
aI280
aI281
aI282
aI283
aI284
aI285
aI286
aI287
aI288
aI289
aI290
aI291
aI292
aI293
aI294
aI295
aI296
aI297
aI298
aI299
aI300
aI301
aI302
aI303
aI304
aI305
aI306
aI307
aI308
aI309
aI310
aI311
aI312
aI313
aI314
aI315
aI316
aI317
aI318
aI319
aI320
aI321
aI322
aI323
aI324
aI325
aI326
aI327
aI328
aI329
aI330
aI331
aI332
aI333
aI334
aI335
aI336
aI337
aI338
aI339
aI340
aI341
aI342
aI343
aI344
aI345
aI346
aI347
aI348
aI349
aI350
aI351
aI352
asS'agent'
p370
S'tableau'
p371
sS'sched_time'
p372
F0.5
sS'scenarios'
p373
(lp374
S'2016-01-13T09:17:00'
p375
aS'2016-01-13T10:39:00'
p376
aS'2016-01-14T12:15:00'
p377
aS'2016-01-15T09:50:00'
p378
aS'2016-01-16T00:22:00'
p379
aS'2016-01-17T00:21:00'
p380
aS'2016-01-18T00:19:00'
p381
aS'2016-01-19T00:15:00'
p382
aS'2016-01-20T00:13:00'
p383
aS'2016-01-21T00:12:00'
p384
aS'2016-01-22T00:11:00'
p385
aS'2016-01-23T00:09:00'
p386
aS'2016-01-24T00:09:00'
p387
aS'2016-01-25T00:08:00'
p388
aS'2016-01-26T00:07:00'
p389
aS'2016-01-27T00:06:00'
p390
aS'2016-01-28T00:04:00'
p391
aS'2016-01-29T00:04:00'
p392
aS'2016-01-30T00:04:00'
p393
aS'2016-01-31T00:02:00'
p394
aS'2016-02-01T00:01:00'
p395
aS'2016-02-02T00:01:00'
p396
aS'2016-02-02T23:57:00'
p397
aS'2016-02-03T23:56:00'
p398
aS'2016-02-04T23:55:00'
p399
aS'2016-02-05T23:53:00'
p400
aS'2016-02-06T23:53:00'
p401
aS'2016-02-07T23:52:00'
p402
aS'2016-02-08T23:50:00'
p403
aS'2016-02-09T23:48:00'
p404
aS'2016-02-10T23:47:00'
p405
aS'2016-02-11T23:46:00'
p406
aS'2016-02-12T23:42:00'
p407
aS'2016-02-13T23:41:00'
p408
aS'2016-02-14T23:41:00'
p409
aS'2016-02-15T23:41:00'
p410
aS'2016-02-16T00:49:00'
p411
aS'2016-02-17T08:55:00'
p412
aS'2016-02-18T02:45:00'
p413
aS'2016-02-19T02:45:00'
p414
aS'2016-02-20T02:18:00'
p415
aS'2016-02-21T02:18:00'
p416
aS'2016-02-22T00:29:00'
p417
aS'2016-02-23T07:56:00'
p418
aS'2016-02-24T03:00:00'
p419
aS'2016-02-25T02:18:00'
p420
aS'2016-02-26T02:15:00'
p421
aS'2016-02-27T02:14:00'
p422
aS'2016-02-28T02:14:00'
p423
aS'2016-02-29T02:14:00'
p424
aS'2016-03-01T00:43:00'
p425
aS'2016-03-02T00:16:00'
p426
aS'2016-03-03T00:15:00'
p427
aS'2016-03-04T00:10:00'
p428
aS'2016-03-05T00:09:00'
p429
aS'2016-03-06T00:05:00'
p430
aS'2016-03-06T23:59:00'
p431
aS'2016-03-07T23:59:00'
p432
aS'2016-03-08T23:54:00'
p433
aS'2016-03-09T23:54:00'
p434
aS'2016-03-10T21:55:00'
p435
aS'2016-03-11T21:52:00'
p436
aS'2016-03-12T21:51:00'
p437
aS'2016-03-13T21:51:00'
p438
aS'2016-03-14T21:51:00'
p439
aS'2016-03-15T19:52:00'
p440
aS'2016-03-16T19:52:00'
p441
aS'2016-03-17T19:52:00'
p442
aS'2016-03-18T19:51:00'
p443
aS'2016-03-19T19:51:00'
p444
aS'2016-03-20T19:50:00'
p445
aS'2016-03-21T19:50:00'
p446
aS'2016-03-22T19:49:00'
p447
aS'2016-03-23T19:48:00'
p448
aS'2016-03-24T19:48:00'
p449
aS'2016-03-25T19:47:00'
p450
aS'2016-03-26T19:46:00'
p451
aS'2016-03-27T19:45:00'
p452
aS'2016-03-28T18:02:00'
p453
aS'2016-03-29T18:02:00'
p454
aS'2016-03-30T18:02:00'
p455
aS'2016-03-31T18:02:00'
p456
aS'2016-04-01T18:02:00'
p457
aS'2016-04-02T18:01:00'
p458
aS'2016-04-03T18:00:00'
p459
aS'2016-04-04T18:00:00'
p460
aS'2016-04-05T18:00:00'
p461
aS'2016-04-06T18:00:00'
p462
aS'2016-04-07T18:00:00'
p463
aS'2016-04-08T18:00:00'
p464
aS'2016-04-09T18:00:00'
p465
aS'2016-04-10T18:00:00'
p466
aS'2016-04-11T18:00:00'
p467
aS'2016-04-12T18:00:00'
p468
aS'2016-04-13T18:00:00'
p469
aS'2016-04-14T18:00:00'
p470
aS'2016-04-15T18:00:00'
p471
aS'2016-04-16T18:00:00'
p472
aS'2016-04-16T18:40:00'
p473
aS'2016-04-17T18:39:00'
p474
aS'2016-04-17T20:14:00'
p475
aS'2016-04-18T19:54:00'
p476
aS'2016-04-19T18:42:00'
p477
aS'2016-04-20T18:41:00'
p478
aS'2016-04-21T18:41:00'
p479
aS'2016-04-22T18:41:00'
p480
aS'2016-04-23T18:40:00'
p481
aS'2016-04-24T18:40:00'
p482
aS'2016-04-25T18:39:00'
p483
aS'2016-04-26T18:39:00'
p484
aS'2016-04-27T18:39:00'
p485
aS'2016-04-28T18:39:00'
p486
aS'2016-04-28T20:39:00'
p487
aS'2016-05-03T18:00:00'
p488
aS'2016-05-04T18:00:00'
p489
aS'2016-05-05T18:00:00'
p490
aS'2016-05-06T18:00:00'
p491
aS'2016-05-07T18:00:00'
p492
aS'2016-05-08T18:00:00'
p493
aS'2016-05-09T18:00:00'
p494
aS'2016-05-10T18:00:00'
p495
aS'2016-05-11T18:00:00'
p496
aS'2016-05-12T18:00:00'
p497
aS'2016-05-13T18:00:00'
p498
aS'2016-05-14T18:00:00'
p499
aS'2016-05-15T18:00:00'
p500
aS'2016-05-15T20:39:00'
p501
aS'2016-05-16T20:38:00'
p502
aS'2016-05-17T20:38:00'
p503
aS'2016-05-18T20:38:00'
p504
aS'2016-05-19T19:05:00'
p505
aS'2016-05-20T18:59:00'
p506
aS'2016-05-20T20:47:00'
p507
aS'2016-05-22T18:01:00'
p508
aS'2016-05-23T18:01:00'
p509
aS'2016-05-24T18:00:00'
p510
aS'2016-05-25T18:00:00'
p511
aS'2016-05-25T20:45:00'
p512
aS'2016-05-26T20:40:00'
p513
aS'2016-05-27T20:40:00'
p514
aS'2016-05-28T20:40:00'
p515
aS'2016-05-29T20:40:00'
p516
aS'2016-05-30T20:40:00'
p517
aS'2016-05-31T20:39:00'
p518
aS'2016-06-01T20:36:00'
p519
aS'2016-06-02T20:36:00'
p520
aS'2016-06-03T20:36:00'
p521
aS'2016-06-03T20:41:00'
p522
aS'2016-06-07T18:01:00'
p523
aS'2016-06-08T18:00:00'
p524
aS'2016-06-09T18:00:00'
p525
aS'2016-06-10T18:00:00'
p526
aS'2016-06-10T20:23:00'
p527
aS'2016-06-12T18:09:00'
p528
aS'2016-06-13T18:09:00'
p529
aS'2016-06-14T18:08:00'
p530
aS'2016-06-15T18:08:00'
p531
aS'2016-06-16T18:08:00'
p532
aS'2016-06-17T18:07:00'
p533
aS'2016-06-18T18:05:00'
p534
aS'2016-06-19T18:05:00'
p535
aS'2016-06-20T18:05:00'
p536
aS'2016-06-21T18:00:00'
p537
aS'2016-06-22T18:00:00'
p538
aS'2016-06-22T19:10:00'
p539
aS'2016-06-23T19:10:00'
p540
aS'2016-06-24T19:10:00'
p541
aS'2016-06-25T19:09:00'
p542
aS'2016-06-26T19:08:00'
p543
aS'2016-06-27T19:07:00'
p544
aS'2016-06-28T18:56:00'
p545
aS'2016-06-29T18:54:00'
p546
aS'2016-06-30T18:54:00'
p547
aS'2016-07-01T18:52:00'
p548
aS'2016-07-02T18:51:00'
p549
aS'2016-07-03T18:51:00'
p550
aS'2016-07-04T18:51:00'
p551
aS'2016-07-05T18:51:00'
p552
aS'2016-07-06T18:49:00'
p553
aS'2016-07-07T18:49:00'
p554
aS'2016-07-08T18:49:00'
p555
aS'2016-07-09T18:48:00'
p556
aS'2016-07-10T18:48:00'
p557
aS'2016-07-11T18:47:00'
p558
aS'2016-07-12T18:47:00'
p559
aS'2016-07-13T18:46:00'
p560
aS'2016-07-14T18:46:00'
p561
aS'2016-07-15T18:45:00'
p562
aS'2016-07-16T18:42:00'
p563
aS'2016-07-17T18:42:00'
p564
aS'2016-07-17T20:44:00'
p565
aS'2016-07-19T18:00:00'
p566
aS'2016-07-20T18:00:00'
p567
aS'2016-07-21T18:00:00'
p568
aS'2016-07-22T18:00:00'
p569
aS'2016-07-23T18:00:00'
p570
aS'2016-07-24T18:00:00'
p571
aS'2016-07-24T20:44:00'
p572
aS'2016-07-26T18:00:00'
p573
aS'2016-07-27T18:00:00'
p574
aS'2016-07-28T18:00:00'
p575
aS'2016-07-29T18:00:00'
p576
aS'2016-07-30T18:00:00'
p577
aS'2016-07-31T18:00:00'
p578
aS'2016-07-31T20:43:00'
p579
aS'2016-08-01T20:43:00'
p580
aS'2016-08-02T19:07:00'
p581
aS'2016-08-03T19:00:00'
p582
aS'2016-08-04T18:57:00'
p583
aS'2016-08-04T20:46:00'
p584
aS'2016-08-07T18:00:00'
p585
aS'2016-08-07T20:43:00'
p586
aS'2016-08-09T18:01:00'
p587
aS'2016-08-10T18:01:00'
p588
aS'2016-08-11T18:01:00'
p589
aS'2016-08-12T18:01:00'
p590
aS'2016-08-13T18:01:00'
p591
aS'2016-08-14T18:01:00'
p592
aS'2016-08-15T18:01:00'
p593
aS'2016-08-16T18:01:00'
p594
aS'2016-08-17T18:00:00'
p595
aS'2016-08-18T11:33:00'
p596
aS'2016-08-19T11:03:00'
p597
aS'2016-08-20T11:03:00'
p598
aS'2016-08-20T18:43:00'
p599
aS'2016-08-21T18:43:00'
p600
aS'2016-08-22T18:43:00'
p601
aS'2016-08-23T18:29:00'
p602
aS'2016-08-24T18:08:00'
p603
aS'2016-08-25T18:08:00'
p604
aS'2016-08-26T18:01:00'
p605
aS'2016-08-27T18:01:00'
p606
aS'2016-08-27T23:57:00'
p607
aS'2016-08-29T13:04:00'
p608
aS'2016-08-30T08:00:00'
p609
aS'2016-08-30T19:08:00'
p610
aS'2016-08-31T19:06:00'
p611
aS'2016-09-01T19:04:00'
p612
aS'2016-09-02T19:02:00'
p613
aS'2016-09-03T17:50:00'
p614
aS'2016-09-04T14:30:00'
p615
aS'2016-09-04T22:37:00'
p616
aS'2016-09-05T22:32:00'
p617
aS'2016-09-06T19:09:00'
p618
aS'2016-09-07T19:00:00'
p619
aS'2016-09-08T18:59:00'
p620
aS'2016-09-09T18:58:00'
p621
aS'2016-09-10T18:58:00'
p622
aS'2016-09-11T18:58:00'
p623
aS'2016-09-12T18:58:00'
p624
aS'2016-09-13T18:53:00'
p625
aS'2016-09-14T18:50:00'
p626
aS'2016-09-15T18:50:00'
p627
aS'2016-09-16T18:50:00'
p628
aS'2016-09-17T18:49:00'
p629
aS'2016-09-18T18:49:00'
p630
aS'2016-09-19T18:48:00'
p631
aS'2016-09-20T18:48:00'
p632
aS'2016-09-21T18:48:00'
p633
aS'2016-09-22T18:48:00'
p634
aS'2016-09-23T18:48:00'
p635
aS'2016-09-24T18:48:00'
p636
aS'2016-09-25T18:48:00'
p637
aS'2016-09-26T18:28:00'
p638
aS'2016-09-27T18:27:00'
p639
aS'2016-09-28T18:27:00'
p640
aS'2016-09-29T18:25:00'
p641
aS'2016-09-30T18:24:00'
p642
aS'2016-10-01T18:24:00'
p643
aS'2016-10-02T18:24:00'
p644
aS'2016-10-03T18:23:00'
p645
aS'2016-10-04T18:23:00'
p646
aS'2016-10-05T18:23:00'
p647
aS'2016-10-06T18:23:00'
p648
aS'2016-10-07T18:23:00'
p649
aS'2016-10-08T18:23:00'
p650
aS'2016-10-09T18:21:00'
p651
aS'2016-10-10T18:21:00'
p652
aS'2016-10-11T18:20:00'
p653
aS'2016-10-12T18:20:00'
p654
aS'2016-10-13T18:18:00'
p655
aS'2016-10-14T18:17:00'
p656
aS'2016-10-15T18:17:00'
p657
aS'2016-10-16T18:17:00'
p658
aS'2016-10-17T18:16:00'
p659
aS'2016-10-18T18:15:00'
p660
aS'2016-10-19T18:15:00'
p661
aS'2016-10-20T18:15:00'
p662
aS'2016-10-21T18:15:00'
p663
aS'2016-10-22T18:15:00'
p664
aS'2016-10-23T18:15:00'
p665
aS'2016-10-24T18:13:00'
p666
aS'2016-10-25T18:11:00'
p667
aS'2016-10-26T15:51:00'
p668
aS'2016-10-27T11:55:00'
p669
aS'2016-10-27T20:43:00'
p670
aS'2016-10-28T20:43:00'
p671
aS'2016-10-29T20:43:00'
p672
aS'2016-10-30T20:43:00'
p673
aS'2016-10-31T20:43:00'
p674
aS'2016-11-01T19:08:00'
p675
aS'2016-11-02T19:01:00'
p676
aS'2016-11-03T19:00:00'
p677
aS'2016-11-04T18:58:00'
p678
aS'2016-11-05T18:58:00'
p679
aS'2016-11-06T18:56:00'
p680
aS'2016-11-07T18:55:00'
p681
aS'2016-11-08T18:54:00'
p682
aS'2016-11-09T18:53:00'
p683
aS'2016-11-10T18:53:00'
p684
aS'2016-11-11T18:53:00'
p685
aS'2016-11-12T18:53:00'
p686
aS'2016-11-13T18:53:00'
p687
aS'2016-11-14T18:51:00'
p688
aS'2016-11-15T18:49:00'
p689
aS'2016-11-16T18:49:00'
p690
aS'2016-11-17T18:49:00'
p691
aS'2016-11-18T18:47:00'
p692
aS'2016-11-19T18:44:00'
p693
aS'2016-11-20T18:44:00'
p694
aS'2016-11-20T21:21:00'
p695
aS'2016-11-22T18:00:00'
p696
aS'2016-11-23T18:00:00'
p697
aS'2016-11-24T18:00:00'
p698
aS'2016-11-25T18:00:00'
p699
aS'2016-11-25T21:16:00'
p700
aS'2016-11-26T19:27:00'
p701
aS'2016-11-27T19:27:00'
p702
aS'2016-11-27T21:24:00'
p703
aS'2016-11-29T07:43:00'
p704
aS'2016-11-29T20:46:00'
p705
aS'2016-11-30T20:45:00'
p706
aS'2016-12-01T20:44:00'
p707
aS'2016-12-02T20:44:00'
p708
aS'2016-12-03T16:20:00'
p709
aS'2016-12-05T18:00:00'
p710
aS'2016-12-06T18:00:00'
p711
aS'2016-12-07T18:00:00'
p712
aS'2016-12-08T09:13:00'
p713
aS'2016-12-09T08:59:00'
p714
aS'2016-12-10T08:18:00'
p715
aS'2016-12-10T20:47:00'
p716
aS'2016-12-11T20:47:00'
p717
aS'2016-12-12T20:47:00'
p718
aS'2016-12-13T20:46:00'
p719
aS'2016-12-14T20:46:00'
p720
aS'2016-12-14T20:49:00'
p721
aS'2016-12-16T13:47:00'
p722
aS'2016-12-17T10:35:00'
p723
aS'2016-12-17T20:46:00'
p724
aS'2016-12-20T07:04:00'
p725
aS'2016-12-20T20:45:00'
p726
asS'detected'
p727
(lp728
I0
aI0
aI0
aI1
aI0
aI0
aI1
aI1
aI0
aI3
aI2
aI5
aI0
aI0
aI0
aI0
aI1
aI0
aI0
aI0
aI0
aI0
aI2
aI0
aI0
aI0
aI0
aI0
aI0
aI1
aI2
aI7
aI3
aI30
aI24
aI27
aI0
aI2
aI1
aI21
aI2
aI1
aI0
aI0
aI5
aI0
aI0
aI0
aI0
aI0
aI12
aI15
aI0
aI0
aI1
aI0
aI0
aI0
aI0
aI0
aI0
aI1
aI1
aI0
aI1
aI0
aI0
aI0
aI0
aI0
aI0
aI0
aI0
aI0
aI0
aI0
aI0
aI1
aI0
aI1
aI0
aI0
aI41
aI43
aI26
aI37
aI0
aI0
aI1
aI3
aI0
aI0
aI0
aI0
aI0
aI0
aI0
aI27
aI10
aI20
aI41
aI40
aI35
aI1
aI0
aI0
aI0
aI0
aI0
aI1
aI1
aI0
aI0
aI2
aI0
aI0
aI0
aI0
aI0
aI0
aI0
aI0
aI50
aI33
aI0
aI0
aI0
aI0
aI0
aI17
aI0
aI0
aI0
aI0
aI0
aI0
aI0
aI0
aI1
aI0
aI1
aI0
aI1
aI1
aI0
aI0
aI0
aI0
aI18
aI13
aI14
aI9
aI0
aI0
aI0
aI6
aI0
aI0
aI0
aI0
aI0
aI5
aI19
aI27
aI25
aI19
aI19
aI20
aI34
aI19
aI1
aI15
aI1
aI1
aI1
aI1
aI1
aI2
aI5
aI1
aI1
aI1
aI1
aI1
aI1
aI2
aI2
aI1
aI2
aI1
aI0
aI0
aI1
aI2
aI1
aI1
aI0
aI0
aI0
aI18
aI20
aI1
aI1
aI1
aI0
aI1
aI2
aI0
aI1
aI0
aI0
aI0
aI1
aI1
aI1
aI7
aI7
aI27
aI42
aI35
aI60
aI44
aI166
aI56
aI14
aI17
aI4
aI13
aI36
aI16
aI68
aI149
aI0
aI73
aI6
aI7
aI89
aI137
aI109
aI54
aI3
aI1
aI1
aI1
aI2
aI4
aI1
aI1
aI3
aI1
aI6
aI3
aI5
aI1
aI1
aI2
aI1
aI2
aI1
aI2
aI2
aI11
aI38
aI2
aI16
aI5
aI2
aI10
aI1
aI2
aI2
aI2
aI3
aI3
aI3
aI4
aI3
aI3
aI4
aI3
aI4
aI7
aI3
aI3
aI3
aI3
aI6
aI2
aI7
aI2
aI3
aI1
aI11
aI2
aI2
aI2
aI1
aI0
aI0
aI1
aI0
aI0
aI0
aI0
aI0
aI0
aI3
aI2
aI1
aI2
aI0
aI0
aI0
aI0
aI0
aI0
aI1
aI3
aI1
aI0
aI0
aI2
aI2
aI6
aI14
aI44
aI1
aI8
aI0
aI5
aI2
aI4
aI0
aI4
aI0
aI21
aI4
aI0
aI2
aI7
aI8
aI0
aI1
aI3
aI1
aI0
aI0
aI4
aI2
aI0
aI2
aI3
asS'result'
p729
(lp730
(lp731
I0
aL0L
aI0
aI1
aI1
aI1
a(lp732
aa(lp733
I0
aL0L
aI0
aI1
aI1
aI1
a(lp734
aa(lp735
I0
aL1L
aI0
aF0
aF0
aI123
a(lp736
aa(lp737
I1
aL0L
aI31
aF0.47413793103448282
aF1
aI123
a(lp738
I31
aaa(lp739
I0
aL0L
aI0
aI1
aI1
aI1
a(lp740
aa(lp741
I0
aL0L
aI0
aI1
aI1
aI1
a(lp742
aa(lp743
I1
aL0L
aI3
aF0.90000000000000002
aF1
aI123
a(lp744
I3
aaa(lp745
I1
aL0L
aI6
aF0.82258064516129026
aF1
aI123
a(lp746
I6
aaa(lp747
I0
aL0L
aI0
aI1
aI1
aI1
a(lp748
aa(lp749
I3
aL1L
aI3
aF0.55416666666666659
aF0.75
aI123
a(lp750
I3
aI9
aI13
aaa(lp751
I2
aL2L
aI12
aF0.32627118644067798
aF0.5
aI123
a(lp752
I12
aI30
aaa(lp753
I5
aL4L
aI1
aF0.45123456790123462
aF0.55555555555555558
aI123
a(lp754
I1
aI4
aI6
aI36
aI40
aaa(lp755
I0
aL1L
aI0
aF0
aF0
aI123
a(lp756
aa(lp757
I0
aL1L
aI0
aF0
aF0
aI123
a(lp758
aa(lp759
I0
aL0L
aI0
aI1
aI1
aI1
a(lp760
aa(lp761
I0
aL0L
aI0
aI1
aI1
aI1
a(lp762
aa(lp763
I1
aL2L
aI6
aF0.27777777777777773
aF0.33333333333333331
aI123
a(lp764
I6
aaa(lp765
I0
aL1L
aI0
aF0
aF0
aI123
a(lp766
aa(lp767
I0
aL0L
aI0
aI1
aI1
aI1
a(lp768
aa(lp769
I0
aL0L
aI0
aI1
aI1
aI1
a(lp770
aa(lp771
I0
aL0L
aI0
aI1
aI1
aI1
a(lp772
aa(lp773
I0
aL0L
aI0
aI1
aI1
aI1
a(lp774
aa(lp775
I2
aL2L
aI8
aF0.34090909090909094
aF0.5
aI123
a(lp776
I8
aI14
aaa(lp777
I0
aL1L
aI0
aF0
aF0
aI123
a(lp778
aa(lp779
I0
aL0L
aI0
aI1
aI1
aI1
a(lp780
aa(lp781
I0
aL0L
aI0
aI1
aI1
aI1
a(lp782
aa(lp783
I0
aL0L
aI0
aI1
aI1
aI1
a(lp784
aa(lp785
I0
aL0L
aI0
aI1
aI1
aI1
a(lp786
aa(lp787
I0
aL0L
aI0
aI1
aI1
aI1
a(lp788
aa(lp789
I1
aL0L
aI21
aF0.48749999999999999
aF1
aI123
a(lp790
I21
aaa(lp791
I2
aL3L
aI7
aF0.29411764705882354
aF0.40000000000000002
aI123
a(lp792
I7
aI21
aaa(lp793
I7
aL4L
aI1
aF0.51335227272727268
aF0.63636363636363635
aI123
a(lp794
I1
aI10
aI22
aI31
aI37
aI41
aI78
aaa(lp795
I3
aL2L
aI3
aF0.54955752212389386
aF0.59999999999999998
aI123
a(lp796
I3
aI13
aI14
aaa(lp797
I30
aL21L
aI1
aF0.38725490196078433
aF0.58823529411764708
aI123
a(lp798
I1
aI2
aI3
aI4
aI8
aI9
aI10
aI11
aI13
aI14
aI17
aI19
aI20
aI21
aI22
aI23
aI24
aI25
aI26
aI27
aI28
aI29
aI30
aI31
aI33
aI34
aI35
aI36
aI37
aI38
aaa(lp799
I24
aL29L
aI1
aF0.35149117468046259
aF0.45283018867924529
aI123
a(lp800
I1
aI2
aI3
aI4
aI5
aI6
aI7
aI8
aI9
aI10
aI11
aI12
aI13
aI14
aI15
aI19
aI21
aI22
aI24
aI25
aI27
aI28
aI29
aI30
aaa(lp801
I27
aL22L
aI2
aF0.39777021919879058
aF0.55102040816326525
aI123
a(lp802
I2
aI3
aI4
aI5
aI6
aI7
aI8
aI9
aI10
aI11
aI12
aI13
aI14
aI15
aI16
aI17
aI18
aI19
aI20
aI21
aI24
aI25
aI26
aI27
aI28
aI29
aI30
aaa(lp803
I0
aL0L
aI0
aI1
aI1
aI1
a(lp804
aa(lp805
I2
aL8L
aI6
aF0.15403225806451612
aF0.20000000000000001
aI123
a(lp806
I6
aI52
aaa(lp807
I1
aL0L
aI1
aF0.98837209302325579
aF1
aI123
a(lp808
I1
aaa(lp809
I21
aL32L
aI2
aF0.31258423180592992
aF0.39622641509433965
aI123
a(lp810
I2
aI3
aI4
aI5
aI6
aI7
aI15
aI17
aI19
aI23
aI25
aI27
aI29
aI31
aI33
aI35
aI36
aI44
aI46
aI49
aI51
aaa(lp811
I2
aL0L
aI29
aF0.81773399014778336
aF1
aI123
a(lp812
I29
aI46
aaa(lp813
I1
aL0L
aI15
aF0.49999999999999994
aF1
aI123
a(lp814
I15
aaa(lp815
I0
aL0L
aI0
aI1
aI1
aI1
a(lp816
aa(lp817
I0
aL0L
aI0
aI1
aI1
aI1
a(lp818
aa(lp819
I5
aL3L
aI17
aF0.37922297297297297
aF0.625
aI123
a(lp820
I17
aI28
aI32
aI33
aI38
aaa(lp821
I0
aL0L
aI0
aI1
aI1
aI1
a(lp822
aa(lp823
I0
aL0L
aI0
aI1
aI1
aI1
a(lp824
aa(lp825
I0
aL0L
aI0
aI1
aI1
aI1
a(lp826
aa(lp827
I0
aL0L
aI0
aI1
aI1
aI1
a(lp828
aa(lp829
I0
aL1L
aI0
aF0
aF0
aI123
a(lp830
aa(lp831
I12
aL19L
aI3
aF0.27724498692240629
aF0.38709677419354838
aI123
a(lp832
I3
aI5
aI6
aI8
aI19
aI21
aI23
aI25
aI26
aI33
aI44
aI45
aaa(lp833
I15
aL15L
aI2
aF0.39202898550724641
aF0.5
aI123
a(lp834
I2
aI3
aI5
aI8
aI9
aI10
aI11
aI12
aI13
aI14
aI15
aI29
aI30
aI32
aI38
aaa(lp835
I0
aL0L
aI0
aI1
aI1
aI1
a(lp836
aa(lp837
I0
aL0L
aI0
aI1
aI1
aI1
a(lp838
aa(lp839
I1
aL0L
aI15
aF0.81874999999999998
aF1
aI123
a(lp840
I15
aaa(lp841
I0
aL0L
aI0
aI1
aI1
aI1
a(lp842
aa(lp843
I0
aL0L
aI0
aI1
aI1
aI1
a(lp844
aa(lp845
I0
aL0L
aI0
aI1
aI1
aI1
a(lp846
aa(lp847
I0
aL0L
aI0
aI1
aI1
aI1
a(lp848
aa(lp849
I0
aL0L
aI0
aI1
aI1
aI1
a(lp850
aa(lp851
I0
aL1L
aI0
aF0
aF0
aI123
a(lp852
aa(lp853
I1
aL0L
aI42
aF0.41549295774647887
aF1
aI123
a(lp854
I42
aaa(lp855
I1
aL0L
aI3
aF0.96710526315789469
aF1
aI123
a(lp856
I3
aaa(lp857
I0
aL1L
aI0
aF0
aF0
aI123
a(lp858
aa(lp859
I1
aL2L
aI14
aF0.19270833333333331
aF0.33333333333333331
aI123
a(lp860
I14
aaa(lp861
I0
aL1L
aI0
aF0
aF0
aI123
a(lp862
aa(lp863
I0
aL2L
aI0
aF0
aF0
aI123
a(lp864
aa(lp865
I0
aL1L
aI0
aF0
aF0
aI123
a(lp866
aa(lp867
I0
aL0L
aI0
aI1
aI1
aI1
a(lp868
aa(lp869
I0
aL0L
aI0
aI1
aI1
aI1
a(lp870
aa(lp871
I0
aL0L
aI0
aI1
aI1
aI1
a(lp872
aa(lp873
I0
aL0L
aI0
aI1
aI1
aI1
a(lp874
aa(lp875
I0
aL0L
aI0
aI1
aI1
aI1
a(lp876
aa(lp877
I0
aL0L
aI0
aI1
aI1
aI1
a(lp878
aa(lp879
I0
aL0L
aI0
aI1
aI1
aI1
a(lp880
aa(lp881
I0
aL0L
aI0
aI1
aI1
aI1
a(lp882
aa(lp883
I0
aL0L
aI0
aI1
aI1
aI1
a(lp884
aa(lp885
I1
aL0L
aI1
aF0.98571428571428565
aF1
aI123
a(lp886
I1
aaa(lp887
I0
aL0L
aI0
aI1
aI1
aI1
a(lp888
aa(lp889
I1
aL0L
aI31
aF0.58783783783783794
aF1
aI123
a(lp890
I31
aaa(lp891
I0
aL0L
aI0
aI1
aI1
aI1
a(lp892
aa(lp893
I0
aL0L
aI0
aI1
aI1
aI1
a(lp894
aa(lp895
I41
aL33L
aI17
aF0.41160298229263748
aF0.55405405405405406
aI123
a(lp896
I17
aI18
aI19
aI20
aI21
aI22
aI23
aI24
aI25
aI27
aI28
aI29
aI30
aI31
aI32
aI33
aI34
aI35
aI36
aI37
aI38
aI39
aI40
aI41
aI42
aI43
aI44
aI45
aI46
aI47
aI48
aI49
aI50
aI51
aI52
aI53
aI54
aI55
aI56
aI57
aI58
aaa(lp897
I43
aL31L
aI1
aF0.4122534696859021
aF0.58108108108108103
aI123
a(lp898
I1
aI2
aI3
aI4
aI5
aI6
aI7
aI8
aI9
aI10
aI11
aI12
aI13
aI14
aI15
aI16
aI17
aI18
aI19
aI20
aI21
aI22
aI23
aI24
aI25
aI26
aI27
aI28
aI29
aI30
aI31
aI32
aI33
aI34
aI35
aI36
aI37
aI38
aI39
aI40
aI41
aI42
aI43
aaa(lp899
I26
aL48L
aI1
aF0.28962746530314099
aF0.35135135135135137
aI123
a(lp900
I1
aI2
aI3
aI4
aI5
aI6
aI7
aI8
aI9
aI10
aI11
aI12
aI13
aI14
aI15
aI16
aI17
aI18
aI19
aI20
aI21
aI22
aI23
aI24
aI25
aI26
aaa(lp901
I37
aL37L
aI1
aF0.375
aF0.5
aI123
a(lp902
I1
aI2
aI3
aI4
aI5
aI6
aI7
aI8
aI9
aI10
aI11
aI12
aI13
aI14
aI15
aI16
aI17
aI18
aI19
aI20
aI21
aI22
aI23
aI24
aI25
aI26
aI27
aI28
aI29
aI30
aI31
aI32
aI33
aI34
aI35
aI36
aI37
aaa(lp903
I0
aL0L
aI0
aI1
aI1
aI1
a(lp904
aa(lp905
I0
aL0L
aI0
aI1
aI1
aI1
a(lp906
aa(lp907
I1
aL1L
aI16
aF0.39802631578947367
aF0.5
aI123
a(lp908
I16
aaa(lp909
I3
aL5L
aI10
aF0.30345394736842107
aF0.375
aI123
a(lp910
I10
aI12
aI23
aaa(lp911
I0
aL0L
aI0
aI1
aI1
aI1
a(lp912
aa(lp913
I0
aL0L
aI0
aI1
aI1
aI1
a(lp914
aa(lp915
I0
aL0L
aI0
aI1
aI1
aI1
a(lp916
aa(lp917
I0
aL1L
aI0
aF0
aF0
aI123
a(lp918
aa(lp919
I0
aL0L
aI0
aI1
aI1
aI1
a(lp920
aa(lp921
I0
aL0L
aI0
aI1
aI1
aI1
a(lp922
aa(lp923
I0
aL0L
aI0
aI1
aI1
aI1
a(lp924
aa(lp925
I27
aL45L
aI1
aF0.3075
aF0.375
aI123
a(lp926
I1
aI2
aI3
aI4
aI5
aI6
aI7
aI8
aI9
aI10
aI11
aI12
aI13
aI14
aI15
aI16
aI17
aI18
aI19
aI20
aI21
aI22
aI23
aI24
aI25
aI26
aI27
aaa(lp927
I10
aL5L
aI1
aF0.49122807017543857
aF0.66666666666666663
aI123
a(lp928
I1
aI2
aI3
aI4
aI5
aI6
aI7
aI8
aI9
aI10
aaa(lp929
I20
aL14L
aI1
aF0.4210526315789474
aF0.58823529411764708
aI123
a(lp930
I1
aI3
aI4
aI8
aI10
aI11
aI12
aI13
aI14
aI15
aI16
aI17
aI20
aI22
aI24
aI26
aI28
aI29
aI30
aI31
aaa(lp931
I41
aL31L
aI1
aF0.41584429824561397
aF0.56944444444444442
aI123
a(lp932
I1
aI2
aI3
aI4
aI5
aI6
aI7
aI8
aI9
aI10
aI11
aI12
aI13
aI14
aI15
aI16
aI17
aI18
aI19
aI20
aI21
aI22
aI23
aI24
aI25
aI26
aI27
aI28
aI29
aI30
aI31
aI32
aI33
aI34
aI35
aI36
aI37
aI38
aI39
aI40
aI41
aaa(lp933
I40
aL32L
aI1
aF0.39656432748538017
aF0.55555555555555558
aI123
a(lp934
I1
aI2
aI3
aI4
aI5
aI7
aI8
aI9
aI10
aI11
aI12
aI13
aI14
aI15
aI16
aI18
aI19
aI20
aI21
aI22
aI23
aI24
aI25
aI26
aI27
aI28
aI29
aI30
aI31
aI32
aI34
aI35
aI36
aI37
aI38
aI39
aI40
aI41
aI42
aI43
aaa(lp935
I35
aL37L
aI1
aF0.35718201754385959
aF0.4861111111111111
aI123
a(lp936
I1
aI2
aI3
aI6
aI7
aI8
aI10
aI11
aI12
aI13
aI14
aI15
aI16
aI17
aI18
aI19
aI20
aI21
aI22
aI23
aI24
aI25
aI26
aI27
aI28
aI29
aI30
aI31
aI32
aI33
aI34
aI35
aI36
aI37
aI38
aaa(lp937
I1
aL3L
aI30
aF0.17769607843137253
aF0.25
aI123
a(lp938
I30
aaa(lp939
I0
aL0L
aI0
aI1
aI1
aI1
a(lp940
aa(lp941
I0
aL0L
aI0
aI1
aI1
aI1
a(lp942
aa(lp943
I0
aL0L
aI0
aI1
aI1
aI1
a(lp944
aa(lp945
I0
aL1L
aI0
aF0
aF0
aI123
a(lp946
aa(lp947
I0
aL1L
aI0
aF0
aF0
aI123
a(lp948
aa(lp949
I1
aL0L
aI8
aF0.90131578947368418
aF1
aI123
a(lp950
I8
aaa(lp951
I1
aL0L
aI17
aF0.7857142857142857
aF1
aI123
a(lp952
I17
aaa(lp953
I0
aL0L
aI0
aI1
aI1
aI1
a(lp954
aa(lp955
I0
aL0L
aI0
aI1
aI1
aI1
a(lp956
aa(lp957
I2
aL0L
aI39
aF0.42948717948717952
aF1
aI123
a(lp958
I39
aI51
aaa(lp959
I0
aL1L
aI0
aF0
aF0
aI123
a(lp960
aa(lp961
I0
aL0L
aI0
aI1
aI1
aI1
a(lp962
aa(lp963
I0
aL0L
aI0
aI1
aI1
aI1
a(lp964
aa(lp965
I0
aL0L
aI0
aI1
aI1
aI1
a(lp966
aa(lp967
I0
aL0L
aI0
aI1
aI1
aI1
a(lp968
aa(lp969
I0
aL0L
aI0
aI1
aI1
aI1
a(lp970
aa(lp971
I0
aL0L
aI0
aI1
aI1
aI1
a(lp972
aa(lp973
I0
aL0L
aI0
aI1
aI1
aI1
a(lp974
aa(lp975
I50
aL22L
aI2
aF0.44901315789473684
aF0.69444444444444442
aI123
a(lp976
I2
aI3
aI4
aI5
aI6
aI7
aI8
aI10
aI11
aI12
aI13
aI14
aI15
aI16
aI17
aI18
aI19
aI20
aI21
aI22
aI23
aI24
aI25
aI26
aI27
aI28
aI29
aI30
aI31
aI32
aI33
aI34
aI35
aI36
aI37
aI38
aI39
aI40
aI41
aI42
aI43
aI44
aI45
aI46
aI47
aI48
aI49
aI50
aI51
aI52
aaa(lp977
I33
aL39L
aI1
aF0.35316154970760227
aF0.45833333333333331
aI123
a(lp978
I1
aI2
aI4
aI5
aI6
aI7
aI8
aI9
aI10
aI11
aI12
aI13
aI14
aI15
aI16
aI17
aI18
aI19
aI20
aI21
aI22
aI23
aI24
aI25
aI26
aI27
aI28
aI29
aI30
aI31
aI32
aI33
aI34
aaa(lp979
I0
aL0L
aI0
aI1
aI1
aI1
a(lp980
aa(lp981
I0
aL0L
aI0
aI1
aI1
aI1
a(lp982
aa(lp983
I0
aL0L
aI0
aI1
aI1
aI1
a(lp984
aa(lp985
I0
aL0L
aI0
aI1
aI1
aI1
a(lp986
aa(lp987
I0
aL0L
aI0
aI1
aI1
aI1
a(lp988
aa(lp989
I17
aL40L
aI4
aF0.24355642191899501
aF0.2982456140350877
aI123
a(lp990
I4
aI5
aI6
aI7
aI8
aI9
aI12
aI13
aI15
aI16
aI19
aI21
aI23
aI24
aI25
aI26
aI28
aaa(lp991
I0
aL0L
aI0
aI1
aI1
aI1
a(lp992
aa(lp993
I0
aL0L
aI0
aI1
aI1
aI1
a(lp994
aa(lp995
I0
aL0L
aI0
aI1
aI1
aI1
a(lp996
aa(lp997
I0
aL0L
aI0
aI1
aI1
aI1
a(lp998
aa(lp999
I0
aL0L
aI0
aI1
aI1
aI1
a(lp1000
aa(lp1001
I0
aL0L
aI0
aI1
aI1
aI1
a(lp1002
aa(lp1003
I0
aL1L
aI0
aF0
aF0
aI123
a(lp1004
aa(lp1005
I0
aL2L
aI0
aF0
aF0
aI123
a(lp1006
aa(lp1007
I1
aL0L
aI2
aF0.97916666666666663
aF1
aI123
a(lp1008
I2
aaa(lp1009
I0
aL1L
aI0
aF0
aF0
aI123
a(lp1010
aa(lp1011
I1
aL1L
aI18
aF0.38636363636363635
aF0.5
aI123
a(lp1012
I18
aaa(lp1013
I0
aL1L
aI0
aF0
aF0
aI123
a(lp1014
aa(lp1015
I1
aL0L
aI1
aF0.99367088607594944
aF1
aI123
a(lp1016
I1
aaa(lp1017
I1
aL1L
aI19
aF0.37828947368421051
aF0.5
aI123
a(lp1018
I19
aaa(lp1019
I0
aL1L
aI0
aF0
aF0
aI123
a(lp1020
aa(lp1021
I0
aL2L
aI0
aF0
aF0
aI123
a(lp1022
aa(lp1023
I0
aL0L
aI0
aI1
aI1
aI1
a(lp1024
aa(lp1025
I0
aL0L
aI0
aI1
aI1
aI1
a(lp1026
aa(lp1027
I18
aL22L
aI1
aF0.34943181818181823
aF0.45000000000000001
aI123
a(lp1028
I1
aI2
aI3
aI4
aI5
aI6
aI8
aI9
aI10
aI11
aI12
aI13
aI14
aI15
aI16
aI18
aI19
aI20
aaa(lp1029
I13
aL20L
aI1
aF0.31200159489633172
aF0.39393939393939392
aI123
a(lp1030
I1
aI2
aI7
aI11
aI12
aI13
aI19
aI20
aI22
aI23
aI25
aI28
aI29
aaa(lp1031
I14
aL19L
aI1
aF0.32296650717703351
aF0.42424242424242425
aI123
a(lp1032
I1
aI5
aI6
aI8
aI14
aI16
aI17
aI24
aI25
aI27
aI28
aI29
aI30
aI31
aaa(lp1033
I9
aL24L
aI1
aF0.23414141414141412
aF0.27272727272727271
aI123
a(lp1034
I1
aI2
aI3
aI4
aI5
aI18
aI19
aI20
aI28
aaa(lp1035
I0
aL0L
aI0
aI1
aI1
aI1
a(lp1036
aa(lp1037
I0
aL1L
aI0
aF0
aF0
aI123
a(lp1038
aa(lp1039
I0
aL1L
aI0
aF0
aF0
aI123
a(lp1040
aa(lp1041
I6
aL1L
aI3
aF0.6820276497695853
aF0.8571428571428571
aI123
a(lp1042
I3
aI4
aI7
aI8
aI9
aI10
aaa(lp1043
I0
aL2L
aI0
aF0
aF0
aI123
a(lp1044
aa(lp1045
I0
aL1L
aI0
aF0
aF0
aI123
a(lp1046
aa(lp1047
I0
aL1L
aI0
aF0
aF0
aI123
a(lp1048
aa(lp1049
I0
aL1L
aI0
aF0
aF0
aI123
a(lp1050
aa(lp1051
I0
aL1L
aI0
aF0
aF0
aI123
a(lp1052
aa(lp1053
I5
aL1L
aI1
aF0.76515151515151525
aF0.83333333333333337
aI123
a(lp1054
I1
aI2
aI3
aI4
aI24
aaa(lp1055
I19
aL24L
aI2
aF0.34210526315789475
aF0.44186046511627908
aI123
a(lp1056
I2
aI3
aI4
aI6
aI7
aI8
aI9
aI11
aI12
aI13
aI14
aI16
aI17
aI18
aI20
aI21
aI23
aI24
aI26
aaa(lp1057
I27
aL21L
aI1
aF0.38791666666666663
aF0.5625
aI123
a(lp1058
I1
aI2
aI7
aI8
aI11
aI12
aI13
aI14
aI15
aI16
aI17
aI18
aI19
aI20
aI21
aI27
aI32
aI34
aI35
aI36
aI37
aI38
aI39
aI41
aI42
aI43
aI44
aaa(lp1059
I25
aL23L
aI1
aF0.39208333333333334
aF0.52083333333333337
aI123
a(lp1060
I1
aI2
aI3
aI4
aI5
aI6
aI7
aI8
aI14
aI15
aI16
aI17
aI18
aI20
aI21
aI27
aI28
aI29
aI30
aI31
aI32
aI34
aI35
aI36
aI37
aaa(lp1061
I19
aL29L
aI1
aF0.32743969298245612
aF0.39583333333333331
aI123
a(lp1062
I1
aI2
aI3
aI4
aI5
aI6
aI7
aI8
aI9
aI10
aI14
aI19
aI20
aI22
aI23
aI25
aI26
aI27
aI28
aaa(lp1063
I19
aL33L
aI1
aF0.26770637898686678
aF0.36538461538461536
aI123
a(lp1064
I1
aI3
aI6
aI7
aI8
aI11
aI13
aI15
aI19
aI22
aI23
aI30
aI35
aI36
aI37
aI38
aI39
aI41
aI42
aaa(lp1065
I20
aL31L
aI1
aF0.33384262796027497
aF0.39215686274509803
aI123
a(lp1066
I1
aI2
aI4
aI5
aI6
aI7
aI8
aI9
aI10
aI11
aI12
aI13
aI14
aI15
aI16
aI17
aI18
aI19
aI25
aI27
aaa(lp1067
I34
aL15L
aI1
aF0.52619966905681193
aF0.69387755102040816
aI123
a(lp1068
I1
aI2
aI3
aI4
aI5
aI7
aI8
aI9
aI10
aI11
aI12
aI13
aI14
aI15
aI16
aI17
aI18
aI19
aI20
aI21
aI22
aI23
aI24
aI25
aI26
aI27
aI28
aI29
aI30
aI31
aI32
aI33
aI34
aI36
aaa(lp1069
I19
aL26L
aI1
aF0.35797101449275359
aF0.42222222222222222
aI123
a(lp1070
I1
aI2
aI4
aI5
aI6
aI7
aI8
aI9
aI10
aI11
aI12
aI13
aI14
aI15
aI16
aI17
aI18
aI19
aI22
aaa(lp1071
I1
aL1L
aI2
aF0.47321428571428575
aF0.5
aI123
a(lp1072
I2
aaa(lp1073
I15
aL2L
aI7
aF0.70496323529411764
aF0.88235294117647056
aI123
a(lp1074
I7
aI8
aI11
aI12
aI13
aI15
aI16
aI22
aI23
aI25
aI27
aI28
aI29
aI30
aI31
aaa(lp1075
I1
aL1L
aI2
aF0.49038461538461536
aF0.5
aI123
a(lp1076
I2
aaa(lp1077
I1
aL0L
aI29
aF0.6298701298701298
aF1
aI123
a(lp1078
I29
aaa(lp1079
I1
aL1L
aI2
aF0.49038461538461536
aF0.5
aI123
a(lp1080
I2
aaa(lp1081
I1
aL2L
aI1
aF0.33108108108108103
aF0.33333333333333331
aI123
a(lp1082
I1
aaa(lp1083
I1
aL2L
aI1
aF0.33130081300813002
aF0.33333333333333331
aI123
a(lp1084
I1
aaa(lp1085
I2
aL1L
aI4
aF0.49999999999999994
aF0.66666666666666663
aI123
a(lp1086
I4
aI9
aaa(lp1087
I5
aL10L
aI1
aF0.27658730158730155
aF0.33333333333333331
aI123
a(lp1088
I1
aI11
aI17
aI20
aI25
aaa(lp1089
I1
aL0L
aI1
aF0.99358974358974361
aF1
aI123
a(lp1090
I1
aaa(lp1091
I1
aL1L
aI2
aF0.49025974025974023
aF0.5
aI123
a(lp1092
I2
aaa(lp1093
I1
aL0L
aI2
aF0.98076923076923073
aF1
aI123
a(lp1094
I2
aaa(lp1095
I1
aL0L
aI1
aF0.99350649350649345
aF1
aI123
a(lp1096
I1
aaa(lp1097
I1
aL2L
aI1
aF0.33122362869198307
aF0.33333333333333331
aI123
a(lp1098
I1
aaa(lp1099
I1
aL0L
aI15
aF0.51666666666666672
aF1
aI123
a(lp1100
I15
aaa(lp1101
I2
aL0L
aI2
aF0.92948717948717952
aF1
aI123
a(lp1102
I2
aI10
aaa(lp1103
I2
aL0L
aI1
aF0.9358974358974359
aF1
aI123
a(lp1104
I1
aI10
aaa(lp1105
I1
aL0L
aI2
aF0.98051948051948046
aF1
aI123
a(lp1106
I2
aaa(lp1107
I2
aL1L
aI1
aF0.56837606837606836
aF0.66666666666666663
aI123
a(lp1108
I1
aI23
aaa(lp1109
I1
aL0L
aI1
aF0.99122807017543857
aF1
aI123
a(lp1110
I1
aaa(lp1111
I0
aL0L
aI0
aI1
aI1
aI1
a(lp1112
aa(lp1113
I0
aL0L
aI0
aI1
aI1
aI1
a(lp1114
aa(lp1115
I1
aL0L
aI1
aF0.99358974358974361
aF1
aI123
a(lp1116
I1
aaa(lp1117
I2
aL0L
aI1
aF0.87179487179487181
aF1
aI123
a(lp1118
I1
aI20
aaa(lp1119
I1
aL0L
aI27
aF0.66455696202531644
aF1
aI123
a(lp1120
I27
aaa(lp1121
I1
aL0L
aI1
aF0.99358974358974361
aF1
aI123
a(lp1122
I1
aaa(lp1123
I0
aL2L
aI0
aF0
aF0
aI123
a(lp1124
aa(lp1125
I0
aL0L
aI0
aI1
aI1
aI1
a(lp1126
aa(lp1127
I0
aL2L
aI0
aF0
aF0
aI123
a(lp1128
aa(lp1129
I18
aL39L
aI1
aF0.25865946918578497
aF0.31578947368421051
aI123
a(lp1130
I1
aI2
aI3
aI7
aI10
aI11
aI12
aI13
aI14
aI15
aI16
aI19
aI20
aI22
aI23
aI24
aI25
aI26
aaa(lp1131
I20
aL13L
aI1
aF0.45998445998446003
aF0.60606060606060608
aI123
a(lp1132
I1
aI2
aI4
aI5
aI6
aI8
aI9
aI11
aI12
aI14
aI18
aI20
aI22
aI24
aI29
aI33
aI35
aI39
aI44
aI50
aaa(lp1133
I1
aL1L
aI12
aF0.42532467532467527
aF0.5
aI123
a(lp1134
I12
aaa(lp1135
I1
aL0L
aI2
aF0.98101265822784811
aF1
aI123
a(lp1136
I2
aaa(lp1137
I1
aL1L
aI32
aF0.29276315789473684
aF0.5
aI123
a(lp1138
I32
aaa(lp1139
I0
aL1L
aI0
aF0
aF0
aI123
a(lp1140
aa(lp1141
I1
aL0L
aI12
aF0.65151515151515149
aF1
aI123
a(lp1142
I12
aaa(lp1143
I2
aL1L
aI4
aF0.5691823899371069
aF0.66666666666666663
aI123
a(lp1144
I4
aI28
aaa(lp1145
I0
aL1L
aI0
aF0
aF0
aI123
a(lp1146
aa(lp1147
I1
aL0L
aI1
aF0.99019607843137247
aF1
aI123
a(lp1148
I1
aaa(lp1149
I0
aL0L
aI0
aI1
aI1
aI1
a(lp1150
aa(lp1151
I0
aL1L
aI0
aF0
aF0
aI123
a(lp1152
aa(lp1153
I0
aL0L
aI0
aI1
aI1
aI1
a(lp1154
aa(lp1155
I1
aL0L
aI6
aF0.828125
aF1
aI123
a(lp1156
I6
aaa(lp1157
I1
aL0L
aI1
aF0.99358974358974361
aF1
aI123
a(lp1158
I1
aaa(lp1159
I1
aL1L
aI1
aF0.49679487179487181
aF0.5
aI123
a(lp1160
I1
aaa(lp1161
I7
aL8L
aI1
aF0.37222222222222223
aF0.46666666666666667
aI123
a(lp1162
I1
aI11
aI17
aI19
aI20
aI22
aI24
aaa(lp1163
I7
aL8L
aI1
aF0.39358974358974358
aF0.46666666666666667
aI123
a(lp1164
I1
aI2
aI7
aI12
aI18
aI21
aI28
aaa(lp1165
I27
aL45L
aI1
aF0.30690836940836941
aF0.375
aI123
a(lp1166
I1
aI2
aI3
aI4
aI5
aI6
aI7
aI8
aI9
aI10
aI11
aI12
aI13
aI14
aI15
aI16
aI18
aI19
aI20
aI21
aI22
aI23
aI24
aI25
aI26
aI28
aI29
aaa(lp1167
I42
aL29L
aI1
aF0.41566901408450707
aF0.59154929577464788
aI123
a(lp1168
I1
aI2
aI3
aI5
aI6
aI7
aI9
aI10
aI11
aI12
aI13
aI14
aI15
aI16
aI17
aI18
aI19
aI20
aI21
aI22
aI23
aI24
aI25
aI27
aI28
aI29
aI30
aI31
aI32
aI33
aI34
aI35
aI37
aI38
aI39
aI40
aI41
aI43
aI46
aI47
aI48
aI49
aaa(lp1169
I35
aL33L
aI1
aF0.42536181139122309
aF0.51470588235294112
aI123
a(lp1170
I1
aI3
aI4
aI5
aI6
aI7
aI8
aI9
aI10
aI11
aI12
aI14
aI15
aI16
aI17
aI18
aI20
aI21
aI22
aI23
aI24
aI25
aI26
aI29
aI30
aI32
aI35
aI36
aI37
aI39
aI40
aI41
aI42
aI48
aI57
aaa(lp1171
I60
aL62L
aI1
aF0.34511946855244829
aF0.49180327868852458
aI123
a(lp1172
I1
aI2
aI5
aI6
aI8
aI10
aI11
aI16
aI20
aI22
aI24
aI25
aI26
aI27
aI28
aI29
aI30
aI31
aI33
aI35
aI38
aI39
aI40
aI41
aI42
aI43
aI44
aI45
aI47
aI48
aI49
aI50
aI51
aI52
aI53
aI55
aI56
aI57
aI59
aI60
aI61
aI62
aI63
aI64
aI65
aI66
aI67
aI68
aI69
aI70
aI71
aI72
aI73
aI74
aI75
aI76
aI77
aI78
aI79
aI80
aaa(lp1173
I44
aL36L
aI1
aF0.3944767441860465
aF0.55000000000000004
aI123
a(lp1174
I1
aI2
aI3
aI4
aI5
aI6
aI7
aI8
aI9
aI10
aI11
aI12
aI13
aI16
aI17
aI18
aI19
aI21
aI22
aI23
aI24
aI25
aI26
aI27
aI28
aI29
aI30
aI31
aI32
aI33
aI34
aI36
aI37
aI38
aI39
aI40
aI41
aI42
aI43
aI44
aI45
aI46
aI47
aI48
aaa(lp1175
I166
aL135L
aI1
aF0.41622759814702165
aF0.55149501661129563
aI123
a(lp1176
I1
aI2
aI3
aI4
aI5
aI6
aI7
aI8
aI9
aI10
aI11
aI12
aI13
aI14
aI15
aI16
aI17
aI18
aI19
aI20
aI21
aI22
aI23
aI24
aI25
aI26
aI27
aI28
aI29
aI30
aI31
aI32
aI33
aI34
aI35
aI36
aI37
aI38
aI39
aI40
aI41
aI42
aI43
aI44
aI45
aI46
aI47
aI48
aI49
aI50
aI51
aI52
aI53
aI54
aI55
aI56
aI57
aI58
aI59
aI60
aI61
aI63
aI64
aI65
aI66
aI67
aI68
aI69
aI70
aI71
aI72
aI73
aI74
aI75
aI76
aI77
aI78
aI79
aI80
aI81
aI82
aI83
aI84
aI85
aI86
aI87
aI88
aI89
aI90
aI91
aI92
aI93
aI94
aI95
aI96
aI97
aI98
aI99
aI100
aI101
aI102
aI103
aI104
aI105
aI106
aI107
aI108
aI109
aI110
aI111
aI112
aI113
aI114
aI115
aI116
aI117
aI118
aI120
aI121
aI122
aI123
aI124
aI125
aI126
aI128
aI130
aI131
aI132
aI134
aI135
aI137
aI141
aI143
aI144
aI148
aI149
aI150
aI151
aI152
aI154
aI155
aI158
aI159
aI160
aI161
aI162
aI163
aI164
aI165
aI166
aI167
aI171
aI172
aI173
aI174
aI175
aI176
aI177
aI179
aI180
aI181
aI182
aI183
aI184
aI185
aI186
aaa(lp1177
I56
aL54L
aI1
aF0.38528505392912171
aF0.50909090909090904
aI123
a(lp1178
I1
aI2
aI3
aI4
aI5
aI6
aI7
aI8
aI9
aI10
aI11
aI12
aI13
aI14
aI15
aI16
aI17
aI18
aI19
aI20
aI21
aI22
aI23
aI24
aI25
aI26
aI27
aI28
aI29
aI30
aI31
aI32
aI33
aI34
aI35
aI36
aI37
aI39
aI41
aI42
aI43
aI44
aI45
aI46
aI47
aI48
aI49
aI50
aI51
aI52
aI53
aI54
aI55
aI56
aI58
aI59
aaa(lp1179
I14
aL2L
aI2
aF0.67769607843137258
aF0.875
aI123
a(lp1180
I2
aI3
aI4
aI6
aI7
aI9
aI10
aI12
aI15
aI16
aI18
aI20
aI21
aI25
aaa(lp1181
I17
aL28L
aI1
aF0.3175213675213675
aF0.37777777777777777
aI123
a(lp1182
I1
aI2
aI3
aI4
aI5
aI6
aI7
aI8
aI9
aI11
aI13
aI15
aI22
aI24
aI26
aI31
aI33
aaa(lp1183
I4
aL25L
aI7
aF0.099941554646405611
aF0.13793103448275862
aI123
a(lp1184
I7
aI13
aI23
aI24
aaa(lp1185
I13
aL13L
aI1
aF0.4084008097165992
aF0.5
aI123
a(lp1186
I1
aI2
aI3
aI4
aI5
aI6
aI7
aI8
aI9
aI10
aI11
aI15
aI16
aaa(lp1187
I36
aL33L
aI1
aF0.38721664808621326
aF0.52173913043478259
aI123
a(lp1188
I1
aI2
aI3
aI4
aI5
aI7
aI8
aI9
aI10
aI11
aI12
aI13
aI14
aI15
aI16
aI17
aI18
aI19
aI20
aI21
aI22
aI25
aI26
aI28
aI29
aI30
aI31
aI32
aI33
aI34
aI35
aI36
aI37
aI38
aI39
aI42
aaa(lp1189
I16
aL5L
aI2
aF0.63558201058201047
aF0.76190476190476186
aI123
a(lp1190
I2
aI3
aI4
aI5
aI6
aI7
aI8
aI9
aI10
aI11
aI13
aI14
aI16
aI26
aI27
aI38
aaa(lp1191
I68
aL69L
aI4
aF0.37490484080426312
aF0.49635036496350365
aI123
a(lp1192
I4
aI5
aI6
aI7
aI8
aI9
aI10
aI11
aI12
aI13
aI14
aI15
aI16
aI17
aI18
aI19
aI20
aI21
aI22
aI23
aI24
aI25
aI27
aI28
aI29
aI30
aI31
aI32
aI33
aI34
aI35
aI36
aI37
aI38
aI39
aI40
aI41
aI42
aI43
aI44
aI45
aI46
aI47
aI48
aI49
aI52
aI53
aI55
aI56
aI59
aI60
aI61
aI62
aI63
aI64
aI65
aI66
aI67
aI69
aI72
aI75
aI76
aI77
aI78
aI79
aI80
aI81
aI83
aaa(lp1193
I149
aL43L
aI1
aF0.58057550465838503
aF0.77604166666666663
aI123
a(lp1194
I1
aI2
aI3
aI4
aI5
aI6
aI7
aI8
aI9
aI10
aI11
aI12
aI13
aI14
aI15
aI16
aI17
aI18
aI19
aI20
aI21
aI22
aI23
aI24
aI25
aI26
aI27
aI28
aI30
aI31
aI32
aI33
aI34
aI35
aI36
aI37
aI38
aI39
aI40
aI41
aI42
aI43
aI45
aI47
aI48
aI49
aI50
aI52
aI53
aI54
aI55
aI56
aI57
aI58
aI59
aI60
aI61
aI62
aI63
aI64
aI65
aI66
aI67
aI68
aI70
aI72
aI73
aI74
aI75
aI76
aI77
aI78
aI79
aI80
aI82
aI83
aI84
aI85
aI86
aI87
aI88
aI89
aI90
aI91
aI92
aI93
aI94
aI95
aI99
aI100
aI102
aI103
aI104
aI105
aI106
aI107
aI108
aI109
aI110
aI111
aI112
aI113
aI114
aI115
aI116
aI117
aI118
aI119
aI120
aI121
aI122
aI123
aI124
aI125
aI126
aI127
aI128
aI129
aI130
aI131
aI132
aI133
aI135
aI137
aI138
aI139
aI140
aI141
aI142
aI143
aI144
aI145
aI146
aI147
aI148
aI149
aI150
aI151
aI152
aI153
aI154
aI156
aI157
aI158
aI159
aI160
aI161
aI162
aI164
aaa(lp1195
I0
aL1L
aI0
aF0
aF0
aI123
a(lp1196
aa(lp1197
I73
aL19L
aI1
aF0.60556549257017056
aF0.79347826086956519
aI123
a(lp1198
I1
aI2
aI3
aI4
aI5
aI6
aI8
aI9
aI10
aI11
aI12
aI13
aI14
aI15
aI16
aI17
aI18
aI19
aI20
aI21
aI22
aI23
aI24
aI25
aI26
aI27
aI28
aI29
aI30
aI31
aI32
aI33
aI34
aI35
aI36
aI37
aI38
aI39
aI40
aI41
aI42
aI43
aI44
aI45
aI46
aI47
aI48
aI49
aI50
aI51
aI52
aI53
aI54
aI55
aI56
aI57
aI58
aI59
aI60
aI61
aI62
aI63
aI64
aI65
aI66
aI67
aI68
aI69
aI70
aI71
aI72
aI73
aI74
aaa(lp1199
I6
aL10L
aI1
aF0.28961267605633806
aF0.375
aI123
a(lp1200
I1
aI5
aI14
aI23
aI25
aI32
aaa(lp1201
I7
aL4L
aI2
aF0.48383838383838379
aF0.63636363636363635
aI123
a(lp1202
I2
aI3
aI11
aI13
aI14
aI17
aI19
aaa(lp1203
I89
aL85L
aI1
aF0.40145640031389929
aF0.5114942528735632
aI123
a(lp1204
I1
aI3
aI4
aI5
aI6
aI7
aI8
aI9
aI10
aI11
aI12
aI13
aI14
aI17
aI18
aI19
aI20
aI21
aI22
aI23
aI24
aI25
aI27
aI29
aI31
aI32
aI33
aI35
aI36
aI37
aI38
aI40
aI41
aI42
aI43
aI44
aI46
aI47
aI48
aI49
aI50
aI51
aI53
aI54
aI55
aI56
aI57
aI58
aI60
aI62
aI64
aI65
aI66
aI67
aI68
aI69
aI70
aI71
aI72
aI73
aI74
aI75
aI76
aI77
aI78
aI79
aI80
aI81
aI82
aI83
aI84
aI85
aI86
aI87
aI88
aI89
aI90
aI91
aI92
aI93
aI94
aI95
aI96
aI100
aI102
aI104
aI105
aI106
aI109
aaa(lp1205
I137
aL150L
aI1
aF0.36681750305443689
aF0.47735191637630664
aI123
a(lp1206
I1
aI2
aI3
aI4
aI5
aI6
aI7
aI8
aI9
aI10
aI11
aI12
aI13
aI14
aI15
aI16
aI17
aI18
aI19
aI20
aI21
aI22
aI23
aI24
aI25
aI27
aI28
aI29
aI30
aI31
aI32
aI33
aI34
aI38
aI39
aI42
aI43
aI45
aI47
aI48
aI49
aI52
aI54
aI55
aI57
aI60
aI62
aI63
aI65
aI67
aI68
aI69
aI70
aI73
aI74
aI75
aI76
aI77
aI78
aI79
aI80
aI81
aI82
aI83
aI84
aI85
aI86
aI87
aI88
aI89
aI90
aI91
aI92
aI93
aI95
aI96
aI98
aI99
aI100
aI101
aI102
aI103
aI105
aI106
aI107
aI109
aI113
aI114
aI115
aI116
aI119
aI121
aI122
aI123
aI125
aI129
aI130
aI131
aI132
aI134
aI135
aI136
aI138
aI139
aI141
aI142
aI143
aI145
aI146
aI147
aI148
aI150
aI152
aI154
aI155
aI157
aI158
aI159
aI160
aI161
aI163
aI165
aI166
aI168
aI170
aI171
aI172
aI173
aI174
aI175
aI177
aI178
aI179
aI181
aI182
aI183
aI189
aaa(lp1207
I109
aL172L
aI1
aF0.31372180269845396
aF0.38790035587188609
aI123
a(lp1208
I1
aI2
aI3
aI4
aI5
aI6
aI7
aI8
aI9
aI10
aI11
aI12
aI13
aI14
aI15
aI16
aI17
aI18
aI19
aI20
aI21
aI22
aI23
aI24
aI25
aI26
aI27
aI28
aI29
aI31
aI32
aI33
aI34
aI35
aI36
aI40
aI42
aI43
aI44
aI45
aI47
aI48
aI51
aI52
aI53
aI54
aI55
aI57
aI58
aI59
aI61
aI65
aI69
aI74
aI76
aI77
aI78
aI80
aI81
aI83
aI84
aI86
aI87
aI88
aI89
aI90
aI91
aI93
aI94
aI95
aI96
aI97
aI100
aI101
aI103
aI104
aI105
aI107
aI108
aI109
aI110
aI111
aI112
aI113
aI114
aI115
aI117
aI119
aI120
aI121
aI122
aI123
aI125
aI126
aI127
aI128
aI129
aI130
aI131
aI134
aI135
aI136
aI137
aI138
aI139
aI141
aI143
aI147
aI148
aaa(lp1209
I54
aL35L
aI1
aF0.46507083536883254
aF0.6067415730337079
aI123
a(lp1210
I1
aI2
aI3
aI4
aI5
aI6
aI7
aI8
aI9
aI10
aI11
aI12
aI13
aI14
aI15
aI16
aI17
aI18
aI20
aI21
aI23
aI24
aI25
aI26
aI27
aI28
aI34
aI59
aI62
aI63
aI64
aI65
aI68
aI69
aI72
aI74
aI75
aI78
aI79
aI80
aI81
aI82
aI85
aI88
aI91
aI92
aI94
aI95
aI96
aI97
aI100
aI106
aI111
aI112
aaa(lp1211
I3
aL2L
aI23
aF0.4038461538461538
aF0.59999999999999998
aI123
a(lp1212
I23
aI26
aI29
aaa(lp1213
I1
aL1L
aI15
aF0.40705128205128205
aF0.5
aI123
a(lp1214
I15
aaa(lp1215
I1
aL0L
aI1
aF0.97826086956521741
aF1
aI123
a(lp1216
I1
aaa(lp1217
I1
aL5L
aI3
aF0.16273584905660377
aF0.16666666666666666
aI123
a(lp1218
I3
aaa(lp1219
I2
aL2L
aI35
aF0.27272727272727271
aF0.5
aI123
a(lp1220
I35
aI36
aaa(lp1221
I4
aL1L
aI2
aF0.768421052631579
aF0.80000000000000004
aI123
a(lp1222
I2
aI3
aI4
aI5
aaa(lp1223
I1
aL2L
aI1
aF0.33148148148148143
aF0.33333333333333331
aI123
a(lp1224
I1
aaa(lp1225
I1
aL0L
aI1
aF0.99367088607594944
aF1
aI123
a(lp1226
I1
aaa(lp1227
I3
aL0L
aI2
aF0.92763157894736836
aF1
aI123
a(lp1228
I2
aI3
aI13
aaa(lp1229
I1
aL1L
aI1
aF0.49683544303797472
aF0.5
aI123
a(lp1230
I1
aaa(lp1231
I6
aL3L
aI1
aF0.57696228338430167
aF0.66666666666666663
aI123
a(lp1232
I1
aI6
aI18
aI20
aI21
aI25
aaa(lp1233
I3
aL1L
aI2
aF0.64772727272727282
aF0.75
aI123
a(lp1234
I2
aI4
aI27
aaa(lp1235
I5
aL5L
aI3
aF0.38544303797468354
aF0.5
aI123
a(lp1236
I3
aI8
aI17
aI29
aI36
aaa(lp1237
I1
aL2L
aI1
aF0.33119658119658119
aF0.33333333333333331
aI123
a(lp1238
I1
aaa(lp1239
I1
aL2L
aI33
aF0.19444444444444442
aF0.33333333333333331
aI123
a(lp1240
I33
aaa(lp1241
I2
aL1L
aI1
aF0.65800865800865793
aF0.66666666666666663
aI123
a(lp1242
I1
aI2
aaa(lp1243
I1
aL2L
aI1
aF0.33119658119658119
aF0.33333333333333331
aI123
a(lp1244
I1
aaa(lp1245
I2
aL5L
aI1
aF0.27310924369747897
aF0.2857142857142857
aI123
a(lp1246
I1
aI3
aaa(lp1247
I1
aL1L
aI1
aF0.49679487179487181
aF0.5
aI123
a(lp1248
I1
aaa(lp1249
I2
aL0L
aI1
aF0.78846153846153844
aF1
aI123
a(lp1250
I1
aI33
aaa(lp1251
I2
aL0L
aI2
aF0.78205128205128205
aF1
aI123
a(lp1252
I2
aI33
aaa(lp1253
I11
aL9L
aI1
aF0.49228395061728397
aF0.55000000000000004
aI123
a(lp1254
I1
aI2
aI3
aI6
aI8
aI9
aI10
aI11
aI13
aI14
aI22
aaa(lp1255
I38
aL51L
aI1
aF0.32005185825410543
aF0.42696629213483145
aI123
a(lp1256
I1
aI2
aI5
aI10
aI13
aI15
aI21
aI23
aI24
aI25
aI26
aI27
aI28
aI29
aI30
aI31
aI32
aI33
aI34
aI35
aI36
aI37
aI38
aI39
aI40
aI41
aI42
aI43
aI44
aI45
aI46
aI47
aI48
aI49
aI50
aI54
aI56
aI57
aaa(lp1257
I2
aL1L
aI3
aF0.51111111111111107
aF0.66666666666666663
aI123
a(lp1258
I3
aI5
aaa(lp1259
I16
aL6L
aI1
aF0.51113172541743979
aF0.72727272727272729
aI123
a(lp1260
I1
aI2
aI3
aI5
aI11
aI12
aI15
aI16
aI17
aI18
aI20
aI22
aI23
aI24
aI25
aI27
aaa(lp1261
I5
aL1L
aI16
aF0.58231707317073178
aF0.83333333333333337
aI123
a(lp1262
I16
aI26
aI27
aI28
aI29
aaa(lp1263
I2
aL2L
aI16
aF0.39374999999999999
aF0.5
aI123
a(lp1264
I16
aI19
aaa(lp1265
I10
aL1L
aI1
aF0.80459770114942519
aF0.90909090909090906
aI123
a(lp1266
I1
aI2
aI3
aI7
aI12
aI13
aI14
aI16
aI18
aI19
aaa(lp1267
I1
aL2L
aI1
aF0.33122362869198307
aF0.33333333333333331
aI123
a(lp1268
I1
aaa(lp1269
I2
aL0L
aI1
aF0.98630136986301375
aF1
aI123
a(lp1270
I1
aI2
aaa(lp1271
I2
aL1L
aI1
aF0.65873015873015872
aF0.66666666666666663
aI123
a(lp1272
I1
aI2
aaa(lp1273
I2
aL5L
aI2
aF0.26890756302521007
aF0.2857142857142857
aI123
a(lp1274
I2
aI3
aaa(lp1275
I3
aL0L
aI1
aF0.98101265822784811
aF1
aI123
a(lp1276
I1
aI2
aI3
aaa(lp1277
I3
aL0L
aI1
aF0.98101265822784811
aF1
aI123
a(lp1278
I1
aI2
aI3
aaa(lp1279
I3
aL0L
aI1
aF0.98101265822784811
aF1
aI123
a(lp1280
I1
aI2
aI3
aaa(lp1281
I4
aL0L
aI1
aF0.92948717948717952
aF1
aI123
a(lp1282
I1
aI2
aI3
aI18
aaa(lp1283
I3
aL0L
aI1
aF0.98000000000000009
aF1
aI123
a(lp1284
I1
aI2
aI3
aaa(lp1285
I3
aL0L
aI1
aF0.98192771084337349
aF1
aI123
a(lp1286
I1
aI2
aI3
aaa(lp1287
I4
aL3L
aI1
aF0.47899159663865548
aF0.5714285714285714
aI123
a(lp1288
I1
aI2
aI4
aI17
aaa(lp1289
I3
aL0L
aI1
aF0.98076923076923073
aF1
aI123
a(lp1290
I1
aI2
aI3
aaa(lp1291
I4
aL3L
aI1
aF0.41652323580034417
aF0.5714285714285714
aI123
a(lp1292
I1
aI29
aI30
aI32
aaa(lp1293
I7
aL0L
aI1
aF0.90275387263339069
aF1
aI123
a(lp1294
I1
aI3
aI4
aI6
aI9
aI10
aI27
aaa(lp1295
I3
aL0L
aI1
aF0.98101265822784811
aF1
aI123
a(lp1296
I1
aI2
aI3
aaa(lp1297
I3
aL0L
aI1
aF0.97887323943661975
aF1
aI123
a(lp1298
I1
aI2
aI3
aaa(lp1299
I3
aL2L
aI1
aF0.59010989010989012
aF0.59999999999999998
aI123
a(lp1300
I1
aI2
aI3
aaa(lp1301
I3
aL2L
aI1
aF0.56605504587155964
aF0.59999999999999998
aI123
a(lp1302
I1
aI6
aI13
aaa(lp1303
I6
aL0L
aI1
aF0.96511627906976749
aF1
aI123
a(lp1304
I1
aI2
aI3
aI4
aI5
aI6
aaa(lp1305
I2
aL0L
aI1
aF0.98734177215189878
aF1
aI123
a(lp1306
I1
aI2
aaa(lp1307
I7
aL2L
aI1
aF0.66604244694132342
aF0.77777777777777779
aI123
a(lp1308
I1
aI2
aI3
aI4
aI11
aI32
aI40
aaa(lp1309
I2
aL1L
aI1
aF0.65833333333333333
aF0.66666666666666663
aI123
a(lp1310
I1
aI2
aaa(lp1311
I3
aL0L
aI1
aF0.94675925925925919
aF1
aI123
a(lp1312
I1
aI2
aI10
aaa(lp1313
I1
aL1L
aI1
aF0.49705882352941178
aF0.5
aI123
a(lp1314
I1
aaa(lp1315
I11
aL8L
aI1
aF0.41767881241565452
aF0.57894736842105265
aI123
a(lp1316
I1
aI2
aI3
aI4
aI11
aI13
aI15
aI17
aI18
aI19
aI22
aaa(lp1317
I2
aL1L
aI1
aF0.65833333333333333
aF0.66666666666666663
aI123
a(lp1318
I1
aI2
aaa(lp1319
I2
aL1L
aI1
aF0.64999999999999991
aF0.66666666666666663
aI123
a(lp1320
I1
aI4
aaa(lp1321
I2
aL0L
aI2
aF0.97530864197530864
aF1
aI123
a(lp1322
I2
aI3
aaa(lp1323
I1
aL1L
aI2
aF0.49539877300613494
aF0.5
aI123
a(lp1324
I2
aaa(lp1325
I0
aL0L
aI0
aI1
aI1
aI1
a(lp1326
aa(lp1327
I0
aL0L
aI0
aI1
aI1
aI1
a(lp1328
aa(lp1329
I1
aL4L
aI2
aF0.19210526315789475
aF0.20000000000000001
aI123
a(lp1330
I2
aaa(lp1331
I0
aL0L
aI0
aI1
aI1
aI1
a(lp1332
aa(lp1333
I0
aL0L
aI0
aI1
aI1
aI1
a(lp1334
aa(lp1335
I0
aL0L
aI0
aI1
aI1
aI1
a(lp1336
aa(lp1337
I0
aL0L
aI0
aI1
aI1
aI1
a(lp1338
aa(lp1339
I0
aL0L
aI0
aI1
aI1
aI1
a(lp1340
aa(lp1341
I0
aL0L
aI0
aI1
aI1
aI1
a(lp1342
aa(lp1343
I3
aL6L
aI1
aF0.29999999999999999
aF0.33333333333333331
aI123
a(lp1344
I1
aI10
aI19
aaa(lp1345
I2
aL6L
aI13
aF0.20694444444444443
aF0.25
aI123
a(lp1346
I13
aI19
aaa(lp1347
I1
aL3L
aI4
aF0.24059139784946237
aF0.25
aI123
a(lp1348
I4
aaa(lp1349
I2
aL3L
aI1
aF0.32500000000000001
aF0.40000000000000002
aI123
a(lp1350
I1
aI33
aaa(lp1351
I0
aL4L
aI0
aF0
aF0
aI123
a(lp1352
aa(lp1353
I0
aL1L
aI0
aF0
aF0
aI123
a(lp1354
aa(lp1355
I0
aL1L
aI0
aF0
aF0
aI123
a(lp1356
aa(lp1357
I0
aL3L
aI0
aF0
aF0
aI123
a(lp1358
aa(lp1359
I0
aL1L
aI0
aF0
aF0
aI123
a(lp1360
aa(lp1361
I0
aL2L
aI0
aF0
aF0
aI123
a(lp1362
aa(lp1363
I1
aL7L
aI33
aF0.078835227272727279
aF0.125
aI123
a(lp1364
I33
aaa(lp1365
I3
aL3L
aI1
aF0.48824786324786323
aF0.5
aI123
a(lp1366
I1
aI2
aI4
aaa(lp1367
I1
aL1L
aI1
aF0.49691358024691357
aF0.5
aI123
a(lp1368
I1
aaa(lp1369
I0
aL0L
aI0
aI1
aI1
aI1
a(lp1370
aa(lp1371
I0
aL1L
aI0
aF0
aF0
aI123
a(lp1372
aa(lp1373
I2
aL0L
aI1
aF0.98780487804878048
aF1
aI123
a(lp1374
I1
aI2
aaa(lp1375
I2
aL0L
aI2
aF0.97560975609756095
aF1
aI123
a(lp1376
I2
aI3
aaa(lp1377
I6
aL10L
aI1
aF0.28429878048780483
aF0.375
aI123
a(lp1378
I1
aI2
aI9
aI21
aI44
aI45
aaa(lp1379
I14
aL1L
aI1
aF0.60411522633744852
aF0.93333333333333335
aI123
a(lp1380
I1
aI16
aI27
aI28
aI29
aI30
aI31
aI32
aI33
aI34
aI35
aI36
aI37
aI38
aaa(lp1381
I44
aL38L
aI1
aF0.39262343842950626
aF0.53658536585365857
aI123
a(lp1382
I1
aI2
aI3
aI4
aI5
aI6
aI7
aI8
aI9
aI10
aI11
aI12
aI13
aI14
aI15
aI16
aI17
aI18
aI19
aI20
aI21
aI22
aI23
aI24
aI25
aI26
aI27
aI28
aI29
aI30
aI31
aI32
aI33
aI34
aI35
aI36
aI37
aI38
aI39
aI40
aI41
aI42
aI43
aI44
aaa(lp1383
I1
aL1L
aI12
aF0.27884615384615385
aF0.5
aI123
a(lp1384
I12
aaa(lp1385
I8
aL6L
aI1
aF0.49489795918367346
aF0.5714285714285714
aI123
a(lp1386
I1
aI2
aI3
aI4
aI5
aI12
aI18
aI19
aaa(lp1387
I0
aL1L
aI0
aF0
aF0
aI123
a(lp1388
aa(lp1389
I5
aL2L
aI18
aF0.60586734693877553
aF0.7142857142857143
aI123
a(lp1390
I18
aI19
aI20
aI25
aI48
aaa(lp1391
I2
aL0L
aI2
aF0.97435897435897434
aF1
aI123
a(lp1392
I2
aI3
aaa(lp1393
I4
aL1L
aI7
aF0.65806451612903227
aF0.80000000000000004
aI123
a(lp1394
I7
aI18
aI21
aI22
aaa(lp1395
I0
aL0L
aI0
aI1
aI1
aI1
a(lp1396
aa(lp1397
I4
aL0L
aI1
aF0.71428571428571419
aF1
aI123
a(lp1398
I1
aI2
aI3
aI4
aaa(lp1399
I0
aL0L
aI0
aI1
aI1
aI1
a(lp1400
aa(lp1401
I21
aL13L
aI4
aF0.38719512195121952
aF0.61764705882352944
aI123
a(lp1402
I4
aI5
aI9
aI10
aI11
aI16
aI22
aI24
aI28
aI32
aI34
aI36
aI37
aI40
aI42
aI43
aI46
aI49
aI53
aI55
aI57
aaa(lp1403
I4
aL1L
aI1
aF0.78139534883720929
aF0.80000000000000004
aI123
a(lp1404
I1
aI2
aI3
aI4
aaa(lp1405
I0
aL1L
aI0
aF0
aF0
aI123
a(lp1406
aa(lp1407
I2
aL2L
aI2
aF0.48809523809523808
aF0.5
aI123
a(lp1408
I2
aI3
aaa(lp1409
I7
aL2L
aI2
aF0.73888888888888893
aF0.77777777777777779
aI123
a(lp1410
I2
aI3
aI4
aI5
aI6
aI7
aI8
aaa(lp1411
I8
aL0L
aI2
aF0.9101123595505618
aF1
aI123
a(lp1412
I2
aI3
aI4
aI6
aI9
aI10
aI15
aI19
aaa(lp1413
I0
aL0L
aI0
aI1
aI1
aI1
a(lp1414
aa(lp1415
I1
aL1L
aI11
aF0.43597560975609756
aF0.5
aI123
a(lp1416
I11
aaa(lp1417
I3
aL4L
aI1
aF0.40714285714285714
aF0.42857142857142855
aI123
a(lp1418
I1
aI4
aI10
aaa(lp1419
I1
aL0L
aI21
aF0.73717948717948723
aF1
aI123
a(lp1420
I21
aaa(lp1421
I0
aL0L
aI0
aI1
aI1
aI1
a(lp1422
aa(lp1423
I0
aL1L
aI0
aF0
aF0
aI123
a(lp1424
aa(lp1425
I4
aL2L
aI2
aF0.57058823529411762
aF0.66666666666666663
aI123
a(lp1426
I2
aI3
aI4
aI42
aaa(lp1427
I2
aL1L
aI3
aF0.59756097560975607
aF0.66666666666666663
aI123
a(lp1428
I3
aI15
aaa(lp1429
I0
aL0L
aI0
aI1
aI1
aI1
a(lp1430
aa(lp1431
I2
aL0L
aI2
aF0.91176470588235292
aF1
aI123
a(lp1432
I2
aI14
aaa(lp1433
I3
aL1L
aI6
aF0.69974226804123707
aF0.75
aI123
a(lp1434
I6
aI7
aI8
aaasS'env'
p1435
S'paintcontrol'
p1436
sS'action_size'
p1437
I100
sS'hidden_size'
p1438
I0
sS'ttf'
p1439
(lp1440
I0
aI0
aI0
aI31
aI0
aI0
aI3
aI6
aI0
aI3
aI12
aI1
aI0
aI0
aI0
aI0
aI6
aI0
aI0
aI0
aI0
aI0
aI8
aI0
aI0
aI0
aI0
aI0
aI0
aI21
aI7
aI1
aI3
aI1
aI1
aI2
aI0
aI6
aI1
aI2
aI29
aI15
aI0
aI0
aI17
aI0
aI0
aI0
aI0
aI0
aI3
aI2
aI0
aI0
aI15
aI0
aI0
aI0
aI0
aI0
aI0
aI42
aI3
aI0
aI14
aI0
aI0
aI0
aI0
aI0
aI0
aI0
aI0
aI0
aI0
aI0
aI0
aI1
aI0
aI31
aI0
aI0
aI17
aI1
aI1
aI1
aI0
aI0
aI16
aI10
aI0
aI0
aI0
aI0
aI0
aI0
aI0
aI1
aI1
aI1
aI1
aI1
aI1
aI30
aI0
aI0
aI0
aI0
aI0
aI8
aI17
aI0
aI0
aI39
aI0
aI0
aI0
aI0
aI0
aI0
aI0
aI0
aI2
aI1
aI0
aI0
aI0
aI0
aI0
aI4
aI0
aI0
aI0
aI0
aI0
aI0
aI0
aI0
aI2
aI0
aI18
aI0
aI1
aI19
aI0
aI0
aI0
aI0
aI1
aI1
aI1
aI1
aI0
aI0
aI0
aI3
aI0
aI0
aI0
aI0
aI0
aI1
aI2
aI1
aI1
aI1
aI1
aI1
aI1
aI1
aI2
aI7
aI2
aI29
aI2
aI1
aI1
aI4
aI1
aI1
aI2
aI2
aI1
aI1
aI15
aI2
aI1
aI2
aI1
aI1
aI0
aI0
aI1
aI1
aI27
aI1
aI0
aI0
aI0
aI1
aI1
aI12
aI2
aI32
aI0
aI12
aI4
aI0
aI1
aI0
aI0
aI0
aI6
aI1
aI1
aI1
aI1
aI1
aI1
aI1
aI1
aI1
aI1
aI1
aI2
aI1
aI7
aI1
aI1
aI2
aI4
aI1
aI0
aI1
aI1
aI2
aI1
aI1
aI1
aI1
aI23
aI15
aI1
aI3
aI35
aI2
aI1
aI1
aI2
aI1
aI1
aI2
aI3
aI1
aI33
aI1
aI1
aI1
aI1
aI1
aI2
aI1
aI1
aI3
aI1
aI16
aI16
aI1
aI1
aI1
aI1
aI2
aI1
aI1
aI1
aI1
aI1
aI1
aI1
aI1
aI1
aI1
aI1
aI1
aI1
aI1
aI1
aI1
aI1
aI1
aI1
aI1
aI1
aI1
aI1
aI2
aI2
aI0
aI0
aI2
aI0
aI0
aI0
aI0
aI0
aI0
aI1
aI13
aI4
aI1
aI0
aI0
aI0
aI0
aI0
aI0
aI33
aI1
aI1
aI0
aI0
aI1
aI2
aI1
aI1
aI1
aI12
aI1
aI0
aI18
aI2
aI7
aI0
aI1
aI0
aI4
aI1
aI0
aI2
aI2
aI2
aI0
aI11
aI1
aI21
aI0
aI0
aI2
aI3
aI0
aI2
aI6
asS'napfd'
p1441
(lp1442
I1
aI1
aF0
aF0.47413793103448282
aI1
aI1
aF0.90000000000000002
aF0.82258064516129026
aI1
aF0.55416666666666659
aF0.32627118644067798
aF0.45123456790123462
aF0
aF0
aI1
aI1
aF0.27777777777777773
aF0
aI1
aI1
aI1
aI1
aF0.34090909090909094
aF0
aI1
aI1
aI1
aI1
aI1
aF0.48749999999999999
aF0.29411764705882354
aF0.51335227272727268
aF0.54955752212389386
aF0.38725490196078433
aF0.35149117468046259
aF0.39777021919879058
aI1
aF0.15403225806451612
aF0.98837209302325579
aF0.31258423180592992
aF0.81773399014778336
aF0.49999999999999994
aI1
aI1
aF0.37922297297297297
aI1
aI1
aI1
aI1
aF0
aF0.27724498692240629
aF0.39202898550724641
aI1
aI1
aF0.81874999999999998
aI1
aI1
aI1
aI1
aI1
aF0
aF0.41549295774647887
aF0.96710526315789469
aF0
aF0.19270833333333331
aF0
aF0
aF0
aI1
aI1
aI1
aI1
aI1
aI1
aI1
aI1
aI1
aF0.98571428571428565
aI1
aF0.58783783783783794
aI1
aI1
aF0.41160298229263748
aF0.4122534696859021
aF0.28962746530314099
aF0.375
aI1
aI1
aF0.39802631578947367
aF0.30345394736842107
aI1
aI1
aI1
aF0
aI1
aI1
aI1
aF0.3075
aF0.49122807017543857
aF0.4210526315789474
aF0.41584429824561397
aF0.39656432748538017
aF0.35718201754385959
aF0.17769607843137253
aI1
aI1
aI1
aF0
aF0
aF0.90131578947368418
aF0.7857142857142857
aI1
aI1
aF0.42948717948717952
aF0
aI1
aI1
aI1
aI1
aI1
aI1
aI1
aF0.44901315789473684
aF0.35316154970760227
aI1
aI1
aI1
aI1
aI1
aF0.24355642191899501
aI1
aI1
aI1
aI1
aI1
aI1
aF0
aF0
aF0.97916666666666663
aF0
aF0.38636363636363635
aF0
aF0.99367088607594944
aF0.37828947368421051
aF0
aF0
aI1
aI1
aF0.34943181818181823
aF0.31200159489633172
aF0.32296650717703351
aF0.23414141414141412
aI1
aF0
aF0
aF0.6820276497695853
aF0
aF0
aF0
aF0
aF0
aF0.76515151515151525
aF0.34210526315789475
aF0.38791666666666663
aF0.39208333333333334
aF0.32743969298245612
aF0.26770637898686678
aF0.33384262796027497
aF0.52619966905681193
aF0.35797101449275359
aF0.47321428571428575
aF0.70496323529411764
aF0.49038461538461536
aF0.6298701298701298
aF0.49038461538461536
aF0.33108108108108103
aF0.33130081300813002
aF0.49999999999999994
aF0.27658730158730155
aF0.99358974358974361
aF0.49025974025974023
aF0.98076923076923073
aF0.99350649350649345
aF0.33122362869198307
aF0.51666666666666672
aF0.92948717948717952
aF0.9358974358974359
aF0.98051948051948046
aF0.56837606837606836
aF0.99122807017543857
aI1
aI1
aF0.99358974358974361
aF0.87179487179487181
aF0.66455696202531644
aF0.99358974358974361
aF0
aI1
aF0
aF0.25865946918578497
aF0.45998445998446003
aF0.42532467532467527
aF0.98101265822784811
aF0.29276315789473684
aF0
aF0.65151515151515149
aF0.5691823899371069
aF0
aF0.99019607843137247
aI1
aF0
aI1
aF0.828125
aF0.99358974358974361
aF0.49679487179487181
aF0.37222222222222223
aF0.39358974358974358
aF0.30690836940836941
aF0.41566901408450707
aF0.42536181139122309
aF0.34511946855244829
aF0.3944767441860465
aF0.41622759814702165
aF0.38528505392912171
aF0.67769607843137258
aF0.3175213675213675
aF0.099941554646405611
aF0.4084008097165992
aF0.38721664808621326
aF0.63558201058201047
aF0.37490484080426312
aF0.58057550465838503
aF0
aF0.60556549257017056
aF0.28961267605633806
aF0.48383838383838379
aF0.40145640031389929
aF0.36681750305443689
aF0.31372180269845396
aF0.46507083536883254
aF0.4038461538461538
aF0.40705128205128205
aF0.97826086956521741
aF0.16273584905660377
aF0.27272727272727271
aF0.768421052631579
aF0.33148148148148143
aF0.99367088607594944
aF0.92763157894736836
aF0.49683544303797472
aF0.57696228338430167
aF0.64772727272727282
aF0.38544303797468354
aF0.33119658119658119
aF0.19444444444444442
aF0.65800865800865793
aF0.33119658119658119
aF0.27310924369747897
aF0.49679487179487181
aF0.78846153846153844
aF0.78205128205128205
aF0.49228395061728397
aF0.32005185825410543
aF0.51111111111111107
aF0.51113172541743979
aF0.58231707317073178
aF0.39374999999999999
aF0.80459770114942519
aF0.33122362869198307
aF0.98630136986301375
aF0.65873015873015872
aF0.26890756302521007
aF0.98101265822784811
aF0.98101265822784811
aF0.98101265822784811
aF0.92948717948717952
aF0.98000000000000009
aF0.98192771084337349
aF0.47899159663865548
aF0.98076923076923073
aF0.41652323580034417
aF0.90275387263339069
aF0.98101265822784811
aF0.97887323943661975
aF0.59010989010989012
aF0.56605504587155964
aF0.96511627906976749
aF0.98734177215189878
aF0.66604244694132342
aF0.65833333333333333
aF0.94675925925925919
aF0.49705882352941178
aF0.41767881241565452
aF0.65833333333333333
aF0.64999999999999991
aF0.97530864197530864
aF0.49539877300613494
aI1
aI1
aF0.19210526315789475
aI1
aI1
aI1
aI1
aI1
aI1
aF0.29999999999999999
aF0.20694444444444443
aF0.24059139784946237
aF0.32500000000000001
aF0
aF0
aF0
aF0
aF0
aF0
aF0.078835227272727279
aF0.48824786324786323
aF0.49691358024691357
aI1
aF0
aF0.98780487804878048
aF0.97560975609756095
aF0.28429878048780483
aF0.60411522633744852
aF0.39262343842950626
aF0.27884615384615385
aF0.49489795918367346
aF0
aF0.60586734693877553
aF0.97435897435897434
aF0.65806451612903227
aI1
aF0.71428571428571419
aI1
aF0.38719512195121952
aF0.78139534883720929
aF0
aF0.48809523809523808
aF0.73888888888888893
aF0.9101123595505618
aI1
aF0.43597560975609756
aF0.40714285714285714
aF0.73717948717948723
aI1
aF0
aF0.57058823529411762
aF0.59756097560975607
aI1
aF0.91176470588235292
aF0.69974226804123707
asS'rewardfun'
p1443
S'timerank'
p1444
s.